
Lab1.elf:     file format elf32-avr

Sections:
Idx Name          Size      VMA       LMA       File off  Algn
  0 .data         00000184  00800100  00001ae2  00001b76  2**0
                  CONTENTS, ALLOC, LOAD, DATA
  1 .text         00001ae2  00000000  00000000  00000094  2**1
                  CONTENTS, ALLOC, LOAD, READONLY, CODE
  2 .bss          00000652  00800284  00800284  00001cfa  2**0
                  ALLOC
  3 .comment      0000005c  00000000  00000000  00001cfa  2**0
                  CONTENTS, READONLY
  4 .note.gnu.avr.deviceinfo 00000040  00000000  00000000  00001d58  2**2
                  CONTENTS, READONLY
  5 .debug_aranges 000002c0  00000000  00000000  00001d98  2**0
                  CONTENTS, READONLY, DEBUGGING
  6 .debug_info   00002dad  00000000  00000000  00002058  2**0
                  CONTENTS, READONLY, DEBUGGING
  7 .debug_abbrev 00000978  00000000  00000000  00004e05  2**0
                  CONTENTS, READONLY, DEBUGGING
  8 .debug_line   000028a1  00000000  00000000  0000577d  2**0
                  CONTENTS, READONLY, DEBUGGING
  9 .debug_frame  00000748  00000000  00000000  00008020  2**2
                  CONTENTS, READONLY, DEBUGGING
 10 .debug_str    0000e518  00000000  00000000  00008768  2**0
                  CONTENTS, READONLY, DEBUGGING
 11 .debug_loc    00001e53  00000000  00000000  00016c80  2**0
                  CONTENTS, READONLY, DEBUGGING
 12 .debug_ranges 000002b8  00000000  00000000  00018ad3  2**0
                  CONTENTS, READONLY, DEBUGGING
 13 .debug_macro  00001513  00000000  00000000  00018d8b  2**0
                  CONTENTS, READONLY, DEBUGGING

Disassembly of section .text:

00000000 <__vectors>:
       0:	45 c0       	rjmp	.+138    	; 0x8c <__ctors_end>
       2:	00 00       	nop
       4:	61 c0       	rjmp	.+194    	; 0xc8 <__bad_interrupt>
       6:	00 00       	nop
       8:	5f c0       	rjmp	.+190    	; 0xc8 <__bad_interrupt>
       a:	00 00       	nop
       c:	5d c0       	rjmp	.+186    	; 0xc8 <__bad_interrupt>
       e:	00 00       	nop
      10:	5b c0       	rjmp	.+182    	; 0xc8 <__bad_interrupt>
      12:	00 00       	nop
      14:	59 c0       	rjmp	.+178    	; 0xc8 <__bad_interrupt>
      16:	00 00       	nop
      18:	57 c0       	rjmp	.+174    	; 0xc8 <__bad_interrupt>
      1a:	00 00       	nop
      1c:	55 c0       	rjmp	.+170    	; 0xc8 <__bad_interrupt>
      1e:	00 00       	nop
      20:	53 c0       	rjmp	.+166    	; 0xc8 <__bad_interrupt>
      22:	00 00       	nop
      24:	51 c0       	rjmp	.+162    	; 0xc8 <__bad_interrupt>
      26:	00 00       	nop
      28:	4f c0       	rjmp	.+158    	; 0xc8 <__bad_interrupt>
      2a:	00 00       	nop
      2c:	4d c0       	rjmp	.+154    	; 0xc8 <__bad_interrupt>
      2e:	00 00       	nop
      30:	4b c0       	rjmp	.+150    	; 0xc8 <__bad_interrupt>
      32:	00 00       	nop
      34:	0c 94 69 0a 	jmp	0x14d2	; 0x14d2 <__vector_13>
      38:	47 c0       	rjmp	.+142    	; 0xc8 <__bad_interrupt>
      3a:	00 00       	nop
      3c:	45 c0       	rjmp	.+138    	; 0xc8 <__bad_interrupt>
      3e:	00 00       	nop
      40:	43 c0       	rjmp	.+134    	; 0xc8 <__bad_interrupt>
      42:	00 00       	nop
      44:	41 c0       	rjmp	.+130    	; 0xc8 <__bad_interrupt>
      46:	00 00       	nop
      48:	3f c0       	rjmp	.+126    	; 0xc8 <__bad_interrupt>
      4a:	00 00       	nop
      4c:	3d c0       	rjmp	.+122    	; 0xc8 <__bad_interrupt>
      4e:	00 00       	nop
      50:	3b c0       	rjmp	.+118    	; 0xc8 <__bad_interrupt>
      52:	00 00       	nop
      54:	39 c0       	rjmp	.+114    	; 0xc8 <__bad_interrupt>
      56:	00 00       	nop
      58:	37 c0       	rjmp	.+110    	; 0xc8 <__bad_interrupt>
      5a:	00 00       	nop
      5c:	35 c0       	rjmp	.+106    	; 0xc8 <__bad_interrupt>
      5e:	00 00       	nop
      60:	33 c0       	rjmp	.+102    	; 0xc8 <__bad_interrupt>
      62:	00 00       	nop
      64:	31 c0       	rjmp	.+98     	; 0xc8 <__bad_interrupt>
      66:	00 00       	nop
      68:	2f c0       	rjmp	.+94     	; 0xc8 <__bad_interrupt>
      6a:	00 00       	nop
      6c:	2d c0       	rjmp	.+90     	; 0xc8 <__bad_interrupt>
      6e:	00 00       	nop
      70:	2b c0       	rjmp	.+86     	; 0xc8 <__bad_interrupt>
      72:	00 00       	nop
      74:	29 c0       	rjmp	.+82     	; 0xc8 <__bad_interrupt>
      76:	00 00       	nop
      78:	27 c0       	rjmp	.+78     	; 0xc8 <__bad_interrupt>
      7a:	00 00       	nop
      7c:	25 c0       	rjmp	.+74     	; 0xc8 <__bad_interrupt>
      7e:	00 00       	nop
      80:	23 c0       	rjmp	.+70     	; 0xc8 <__bad_interrupt>
      82:	00 00       	nop
      84:	21 c0       	rjmp	.+66     	; 0xc8 <__bad_interrupt>
      86:	00 00       	nop
      88:	1f c0       	rjmp	.+62     	; 0xc8 <__bad_interrupt>
	...

0000008c <__ctors_end>:
      8c:	11 24       	eor	r1, r1
      8e:	1f be       	out	0x3f, r1	; 63
      90:	cf ef       	ldi	r28, 0xFF	; 255
      92:	d0 e4       	ldi	r29, 0x40	; 64
      94:	de bf       	out	0x3e, r29	; 62
      96:	cd bf       	out	0x3d, r28	; 61

00000098 <__do_copy_data>:
      98:	12 e0       	ldi	r17, 0x02	; 2
      9a:	a0 e0       	ldi	r26, 0x00	; 0
      9c:	b1 e0       	ldi	r27, 0x01	; 1
      9e:	e2 ee       	ldi	r30, 0xE2	; 226
      a0:	fa e1       	ldi	r31, 0x1A	; 26
      a2:	00 e0       	ldi	r16, 0x00	; 0
      a4:	0b bf       	out	0x3b, r16	; 59
      a6:	02 c0       	rjmp	.+4      	; 0xac <__do_copy_data+0x14>
      a8:	07 90       	elpm	r0, Z+
      aa:	0d 92       	st	X+, r0
      ac:	a4 38       	cpi	r26, 0x84	; 132
      ae:	b1 07       	cpc	r27, r17
      b0:	d9 f7       	brne	.-10     	; 0xa8 <__do_copy_data+0x10>

000000b2 <__do_clear_bss>:
      b2:	28 e0       	ldi	r18, 0x08	; 8
      b4:	a4 e8       	ldi	r26, 0x84	; 132
      b6:	b2 e0       	ldi	r27, 0x02	; 2
      b8:	01 c0       	rjmp	.+2      	; 0xbc <.do_clear_bss_start>

000000ba <.do_clear_bss_loop>:
      ba:	1d 92       	st	X+, r1

000000bc <.do_clear_bss_start>:
      bc:	a6 3d       	cpi	r26, 0xD6	; 214
      be:	b2 07       	cpc	r27, r18
      c0:	e1 f7       	brne	.-8      	; 0xba <.do_clear_bss_loop>
      c2:	4b d5       	rcall	.+2710   	; 0xb5a <main>
      c4:	0c 94 6f 0d 	jmp	0x1ade	; 0x1ade <_exit>

000000c8 <__bad_interrupt>:
      c8:	9b cf       	rjmp	.-202    	; 0x0 <__vectors>

000000ca <pvPortMalloc>:
      ca:	cf 93       	push	r28
      cc:	df 93       	push	r29
      ce:	ec 01       	movw	r28, r24
      d0:	a2 d6       	rcall	.+3396   	; 0xe16 <vTaskSuspendAll>
      d2:	20 91 84 02 	lds	r18, 0x0284	; 0x800284 <__data_end>
      d6:	30 91 85 02 	lds	r19, 0x0285	; 0x800285 <__data_end+0x1>
      da:	ce 01       	movw	r24, r28
      dc:	82 0f       	add	r24, r18
      de:	93 1f       	adc	r25, r19
      e0:	8c 3d       	cpi	r24, 0xDC	; 220
      e2:	45 e0       	ldi	r20, 0x05	; 5
      e4:	94 07       	cpc	r25, r20
      e6:	58 f4       	brcc	.+22     	; 0xfe <pvPortMalloc+0x34>
      e8:	28 17       	cp	r18, r24
      ea:	39 07       	cpc	r19, r25
      ec:	58 f4       	brcc	.+22     	; 0x104 <pvPortMalloc+0x3a>
      ee:	e9 01       	movw	r28, r18
      f0:	ca 57       	subi	r28, 0x7A	; 122
      f2:	dd 4f       	sbci	r29, 0xFD	; 253
      f4:	90 93 85 02 	sts	0x0285, r25	; 0x800285 <__data_end+0x1>
      f8:	80 93 84 02 	sts	0x0284, r24	; 0x800284 <__data_end>
      fc:	05 c0       	rjmp	.+10     	; 0x108 <pvPortMalloc+0x3e>
      fe:	c0 e0       	ldi	r28, 0x00	; 0
     100:	d0 e0       	ldi	r29, 0x00	; 0
     102:	02 c0       	rjmp	.+4      	; 0x108 <pvPortMalloc+0x3e>
     104:	c0 e0       	ldi	r28, 0x00	; 0
     106:	d0 e0       	ldi	r29, 0x00	; 0
     108:	4d d7       	rcall	.+3738   	; 0xfa4 <xTaskResumeAll>
     10a:	ce 01       	movw	r24, r28
     10c:	df 91       	pop	r29
     10e:	cf 91       	pop	r28
     110:	08 95       	ret

00000112 <vPortFree>:
     112:	08 95       	ret

00000114 <vListInitialise>:
     114:	fc 01       	movw	r30, r24
     116:	03 96       	adiw	r24, 0x03	; 3
     118:	92 83       	std	Z+2, r25	; 0x02
     11a:	81 83       	std	Z+1, r24	; 0x01
     11c:	2f ef       	ldi	r18, 0xFF	; 255
     11e:	3f ef       	ldi	r19, 0xFF	; 255
     120:	34 83       	std	Z+4, r19	; 0x04
     122:	23 83       	std	Z+3, r18	; 0x03
     124:	96 83       	std	Z+6, r25	; 0x06
     126:	85 83       	std	Z+5, r24	; 0x05
     128:	90 87       	std	Z+8, r25	; 0x08
     12a:	87 83       	std	Z+7, r24	; 0x07
     12c:	10 82       	st	Z, r1
     12e:	08 95       	ret

00000130 <vListInitialiseItem>:
     130:	fc 01       	movw	r30, r24
     132:	11 86       	std	Z+9, r1	; 0x09
     134:	10 86       	std	Z+8, r1	; 0x08
     136:	08 95       	ret

00000138 <vListInsertEnd>:
     138:	cf 93       	push	r28
     13a:	df 93       	push	r29
     13c:	fc 01       	movw	r30, r24
     13e:	db 01       	movw	r26, r22
     140:	21 81       	ldd	r18, Z+1	; 0x01
     142:	32 81       	ldd	r19, Z+2	; 0x02
     144:	e9 01       	movw	r28, r18
     146:	8a 81       	ldd	r24, Y+2	; 0x02
     148:	9b 81       	ldd	r25, Y+3	; 0x03
     14a:	13 96       	adiw	r26, 0x03	; 3
     14c:	9c 93       	st	X, r25
     14e:	8e 93       	st	-X, r24
     150:	12 97       	sbiw	r26, 0x02	; 2
     152:	81 81       	ldd	r24, Z+1	; 0x01
     154:	92 81       	ldd	r25, Z+2	; 0x02
     156:	15 96       	adiw	r26, 0x05	; 5
     158:	9c 93       	st	X, r25
     15a:	8e 93       	st	-X, r24
     15c:	14 97       	sbiw	r26, 0x04	; 4
     15e:	8a 81       	ldd	r24, Y+2	; 0x02
     160:	9b 81       	ldd	r25, Y+3	; 0x03
     162:	ec 01       	movw	r28, r24
     164:	7d 83       	std	Y+5, r23	; 0x05
     166:	6c 83       	std	Y+4, r22	; 0x04
     168:	e9 01       	movw	r28, r18
     16a:	7b 83       	std	Y+3, r23	; 0x03
     16c:	6a 83       	std	Y+2, r22	; 0x02
     16e:	72 83       	std	Z+2, r23	; 0x02
     170:	61 83       	std	Z+1, r22	; 0x01
     172:	19 96       	adiw	r26, 0x09	; 9
     174:	fc 93       	st	X, r31
     176:	ee 93       	st	-X, r30
     178:	18 97       	sbiw	r26, 0x08	; 8
     17a:	80 81       	ld	r24, Z
     17c:	8f 5f       	subi	r24, 0xFF	; 255
     17e:	80 83       	st	Z, r24
     180:	df 91       	pop	r29
     182:	cf 91       	pop	r28
     184:	08 95       	ret

00000186 <vListInsert>:
     186:	cf 93       	push	r28
     188:	df 93       	push	r29
     18a:	eb 01       	movw	r28, r22
     18c:	48 81       	ld	r20, Y
     18e:	59 81       	ldd	r21, Y+1	; 0x01
     190:	4f 3f       	cpi	r20, 0xFF	; 255
     192:	2f ef       	ldi	r18, 0xFF	; 255
     194:	52 07       	cpc	r21, r18
     196:	31 f4       	brne	.+12     	; 0x1a4 <vListInsert+0x1e>
     198:	dc 01       	movw	r26, r24
     19a:	17 96       	adiw	r26, 0x07	; 7
     19c:	ed 91       	ld	r30, X+
     19e:	fc 91       	ld	r31, X
     1a0:	18 97       	sbiw	r26, 0x08	; 8
     1a2:	17 c0       	rjmp	.+46     	; 0x1d2 <vListInsert+0x4c>
     1a4:	fc 01       	movw	r30, r24
     1a6:	33 96       	adiw	r30, 0x03	; 3
     1a8:	dc 01       	movw	r26, r24
     1aa:	15 96       	adiw	r26, 0x05	; 5
     1ac:	2d 91       	ld	r18, X+
     1ae:	3c 91       	ld	r19, X
     1b0:	16 97       	sbiw	r26, 0x06	; 6
     1b2:	d9 01       	movw	r26, r18
     1b4:	2d 91       	ld	r18, X+
     1b6:	3c 91       	ld	r19, X
     1b8:	42 17       	cp	r20, r18
     1ba:	53 07       	cpc	r21, r19
     1bc:	50 f0       	brcs	.+20     	; 0x1d2 <vListInsert+0x4c>
     1be:	02 80       	ldd	r0, Z+2	; 0x02
     1c0:	f3 81       	ldd	r31, Z+3	; 0x03
     1c2:	e0 2d       	mov	r30, r0
     1c4:	a2 81       	ldd	r26, Z+2	; 0x02
     1c6:	b3 81       	ldd	r27, Z+3	; 0x03
     1c8:	2d 91       	ld	r18, X+
     1ca:	3c 91       	ld	r19, X
     1cc:	42 17       	cp	r20, r18
     1ce:	53 07       	cpc	r21, r19
     1d0:	b0 f7       	brcc	.-20     	; 0x1be <vListInsert+0x38>
     1d2:	a2 81       	ldd	r26, Z+2	; 0x02
     1d4:	b3 81       	ldd	r27, Z+3	; 0x03
     1d6:	bb 83       	std	Y+3, r27	; 0x03
     1d8:	aa 83       	std	Y+2, r26	; 0x02
     1da:	15 96       	adiw	r26, 0x05	; 5
     1dc:	dc 93       	st	X, r29
     1de:	ce 93       	st	-X, r28
     1e0:	14 97       	sbiw	r26, 0x04	; 4
     1e2:	fd 83       	std	Y+5, r31	; 0x05
     1e4:	ec 83       	std	Y+4, r30	; 0x04
     1e6:	d3 83       	std	Z+3, r29	; 0x03
     1e8:	c2 83       	std	Z+2, r28	; 0x02
     1ea:	99 87       	std	Y+9, r25	; 0x09
     1ec:	88 87       	std	Y+8, r24	; 0x08
     1ee:	fc 01       	movw	r30, r24
     1f0:	20 81       	ld	r18, Z
     1f2:	2f 5f       	subi	r18, 0xFF	; 255
     1f4:	20 83       	st	Z, r18
     1f6:	df 91       	pop	r29
     1f8:	cf 91       	pop	r28
     1fa:	08 95       	ret

000001fc <vListRemove>:
     1fc:	fc 01       	movw	r30, r24
     1fe:	a2 81       	ldd	r26, Z+2	; 0x02
     200:	b3 81       	ldd	r27, Z+3	; 0x03
     202:	84 81       	ldd	r24, Z+4	; 0x04
     204:	95 81       	ldd	r25, Z+5	; 0x05
     206:	15 96       	adiw	r26, 0x05	; 5
     208:	9c 93       	st	X, r25
     20a:	8e 93       	st	-X, r24
     20c:	14 97       	sbiw	r26, 0x04	; 4
     20e:	a4 81       	ldd	r26, Z+4	; 0x04
     210:	b5 81       	ldd	r27, Z+5	; 0x05
     212:	82 81       	ldd	r24, Z+2	; 0x02
     214:	93 81       	ldd	r25, Z+3	; 0x03
     216:	13 96       	adiw	r26, 0x03	; 3
     218:	9c 93       	st	X, r25
     21a:	8e 93       	st	-X, r24
     21c:	12 97       	sbiw	r26, 0x02	; 2
     21e:	a0 85       	ldd	r26, Z+8	; 0x08
     220:	b1 85       	ldd	r27, Z+9	; 0x09
     222:	11 96       	adiw	r26, 0x01	; 1
     224:	8d 91       	ld	r24, X+
     226:	9c 91       	ld	r25, X
     228:	12 97       	sbiw	r26, 0x02	; 2
     22a:	8e 17       	cp	r24, r30
     22c:	9f 07       	cpc	r25, r31
     22e:	31 f4       	brne	.+12     	; 0x23c <vListRemove+0x40>
     230:	84 81       	ldd	r24, Z+4	; 0x04
     232:	95 81       	ldd	r25, Z+5	; 0x05
     234:	12 96       	adiw	r26, 0x02	; 2
     236:	9c 93       	st	X, r25
     238:	8e 93       	st	-X, r24
     23a:	11 97       	sbiw	r26, 0x01	; 1
     23c:	11 86       	std	Z+9, r1	; 0x09
     23e:	10 86       	std	Z+8, r1	; 0x08
     240:	8c 91       	ld	r24, X
     242:	81 50       	subi	r24, 0x01	; 1
     244:	8c 93       	st	X, r24
     246:	08 95       	ret

00000248 <delay_ms>:
		vTaskDelay(250);
	}
}

void ClockPrint_Init()
{
     248:	18 16       	cp	r1, r24
     24a:	19 06       	cpc	r1, r25
     24c:	5c f0       	brlt	.+22     	; 0x264 <delay_ms+0x1c>
     24e:	08 95       	ret
     250:	00 00       	nop
     252:	21 50       	subi	r18, 0x01	; 1
     254:	31 09       	sbc	r19, r1
     256:	e1 f7       	brne	.-8      	; 0x250 <delay_ms+0x8>
     258:	4f 5f       	subi	r20, 0xFF	; 255
     25a:	5f 4f       	sbci	r21, 0xFF	; 255
     25c:	48 17       	cp	r20, r24
     25e:	59 07       	cpc	r21, r25
     260:	29 f4       	brne	.+10     	; 0x26c <delay_ms+0x24>
     262:	08 95       	ret
     264:	40 e0       	ldi	r20, 0x00	; 0
     266:	50 e0       	ldi	r21, 0x00	; 0
     268:	77 e0       	ldi	r23, 0x07	; 7
     26a:	63 e0       	ldi	r22, 0x03	; 3
     26c:	27 2f       	mov	r18, r23
     26e:	36 2f       	mov	r19, r22
     270:	ef cf       	rjmp	.-34     	; 0x250 <delay_ms+0x8>

00000272 <LCD_WriteCommand>:
     272:	29 98       	cbi	0x05, 1	; 5
     274:	82 b9       	out	0x02, r24	; 2
     276:	2a 9a       	sbi	0x05, 2	; 5
     278:	00 00       	nop
     27a:	2a 98       	cbi	0x05, 2	; 5
     27c:	82 e0       	ldi	r24, 0x02	; 2
     27e:	90 e0       	ldi	r25, 0x00	; 0
     280:	e3 cf       	rjmp	.-58     	; 0x248 <delay_ms>
     282:	08 95       	ret

00000284 <LCD_ClearScreen>:
     284:	81 e0       	ldi	r24, 0x01	; 1
     286:	f5 cf       	rjmp	.-22     	; 0x272 <LCD_WriteCommand>
     288:	08 95       	ret

0000028a <LCD_init>:
     28a:	84 e6       	ldi	r24, 0x64	; 100
     28c:	90 e0       	ldi	r25, 0x00	; 0
     28e:	dc df       	rcall	.-72     	; 0x248 <delay_ms>
     290:	88 e3       	ldi	r24, 0x38	; 56
     292:	ef df       	rcall	.-34     	; 0x272 <LCD_WriteCommand>
     294:	86 e0       	ldi	r24, 0x06	; 6
     296:	ed df       	rcall	.-38     	; 0x272 <LCD_WriteCommand>
     298:	8f e0       	ldi	r24, 0x0F	; 15
     29a:	eb df       	rcall	.-42     	; 0x272 <LCD_WriteCommand>
     29c:	81 e0       	ldi	r24, 0x01	; 1
     29e:	e9 df       	rcall	.-46     	; 0x272 <LCD_WriteCommand>
     2a0:	8a e0       	ldi	r24, 0x0A	; 10
     2a2:	90 e0       	ldi	r25, 0x00	; 0
     2a4:	d1 cf       	rjmp	.-94     	; 0x248 <delay_ms>
     2a6:	08 95       	ret

000002a8 <LCD_WriteData>:
     2a8:	29 9a       	sbi	0x05, 1	; 5
     2aa:	82 b9       	out	0x02, r24	; 2
     2ac:	2a 9a       	sbi	0x05, 2	; 5
     2ae:	00 00       	nop
     2b0:	2a 98       	cbi	0x05, 2	; 5
     2b2:	81 e0       	ldi	r24, 0x01	; 1
     2b4:	90 e0       	ldi	r25, 0x00	; 0
     2b6:	c8 cf       	rjmp	.-112    	; 0x248 <delay_ms>
     2b8:	08 95       	ret

000002ba <LCD_Cursor>:
     2ba:	81 31       	cpi	r24, 0x11	; 17
     2bc:	18 f4       	brcc	.+6      	; 0x2c4 <LCD_Cursor+0xa>
     2be:	81 58       	subi	r24, 0x81	; 129
     2c0:	d8 cf       	rjmp	.-80     	; 0x272 <LCD_WriteCommand>
     2c2:	08 95       	ret
     2c4:	81 55       	subi	r24, 0x51	; 81
     2c6:	d5 cf       	rjmp	.-86     	; 0x272 <LCD_WriteCommand>
     2c8:	08 95       	ret

000002ca <LCD_WriteString>:
     2ca:	1f 93       	push	r17
     2cc:	cf 93       	push	r28
     2ce:	df 93       	push	r29
     2d0:	fb 01       	movw	r30, r22
     2d2:	90 81       	ld	r25, Z
     2d4:	99 23       	and	r25, r25
     2d6:	51 f0       	breq	.+20     	; 0x2ec <LCD_WriteString+0x22>
     2d8:	eb 01       	movw	r28, r22
     2da:	11 e0       	ldi	r17, 0x01	; 1
     2dc:	18 0f       	add	r17, r24
     2de:	ed df       	rcall	.-38     	; 0x2ba <LCD_Cursor>
     2e0:	89 91       	ld	r24, Y+
     2e2:	e2 df       	rcall	.-60     	; 0x2a8 <LCD_WriteData>
     2e4:	81 2f       	mov	r24, r17
     2e6:	98 81       	ld	r25, Y
     2e8:	91 11       	cpse	r25, r1
     2ea:	f7 cf       	rjmp	.-18     	; 0x2da <LCD_WriteString+0x10>
     2ec:	df 91       	pop	r29
     2ee:	cf 91       	pop	r28
     2f0:	1f 91       	pop	r17
     2f2:	08 95       	ret

000002f4 <Button_Init>:
     2f4:	10 92 ca 08 	sts	0x08CA, r1	; 0x8008ca <button_state>
     2f8:	81 e0       	ldi	r24, 0x01	; 1
     2fa:	80 93 6d 08 	sts	0x086D, r24	; 0x80086d <but_i>
     2fe:	08 95       	ret

00000300 <Button_Tick>:
     300:	1f 93       	push	r17
     302:	cf 93       	push	r28
     304:	df 93       	push	r29
     306:	dc 01       	movw	r26, r24
     308:	10 92 6d 08 	sts	0x086D, r1	; 0x80086d <but_i>
     30c:	90 e0       	ldi	r25, 0x00	; 0
     30e:	61 e0       	ldi	r22, 0x01	; 1
     310:	70 e0       	ldi	r23, 0x00	; 0
     312:	c1 e0       	ldi	r28, 0x01	; 1
     314:	13 e0       	ldi	r17, 0x03	; 3
     316:	d2 e0       	ldi	r29, 0x02	; 2
     318:	26 b1       	in	r18, 0x06	; 6
     31a:	82 2f       	mov	r24, r18
     31c:	80 95       	com	r24
     31e:	9b 01       	movw	r18, r22
     320:	09 2e       	mov	r0, r25
     322:	02 c0       	rjmp	.+4      	; 0x328 <Button_Tick+0x28>
     324:	22 0f       	add	r18, r18
     326:	33 1f       	adc	r19, r19
     328:	0a 94       	dec	r0
     32a:	e2 f7       	brpl	.-8      	; 0x324 <Button_Tick+0x24>
     32c:	28 23       	and	r18, r24
     32e:	e9 2f       	mov	r30, r25
     330:	09 2e       	mov	r0, r25
     332:	00 0c       	add	r0, r0
     334:	ff 0b       	sbc	r31, r31
     336:	e6 53       	subi	r30, 0x36	; 54
     338:	f7 4f       	sbci	r31, 0xF7	; 247
     33a:	80 81       	ld	r24, Z
     33c:	81 30       	cpi	r24, 0x01	; 1
     33e:	31 f4       	brne	.+12     	; 0x34c <Button_Tick+0x4c>
     340:	fd 01       	movw	r30, r26
     342:	e9 0f       	add	r30, r25
     344:	f1 1d       	adc	r31, r1
     346:	97 fd       	sbrc	r25, 7
     348:	fa 95       	dec	r31
     34a:	c0 83       	st	Z, r28
     34c:	90 91 6d 08 	lds	r25, 0x086D	; 0x80086d <but_i>
     350:	49 2f       	mov	r20, r25
     352:	09 2e       	mov	r0, r25
     354:	00 0c       	add	r0, r0
     356:	55 0b       	sbc	r21, r21
     358:	fa 01       	movw	r30, r20
     35a:	e6 53       	subi	r30, 0x36	; 54
     35c:	f7 4f       	sbci	r31, 0xF7	; 247
     35e:	80 81       	ld	r24, Z
     360:	81 30       	cpi	r24, 0x01	; 1
     362:	59 f0       	breq	.+22     	; 0x37a <Button_Tick+0x7a>
     364:	28 f0       	brcs	.+10     	; 0x370 <Button_Tick+0x70>
     366:	82 30       	cpi	r24, 0x02	; 2
     368:	69 f0       	breq	.+26     	; 0x384 <Button_Tick+0x84>
     36a:	83 30       	cpi	r24, 0x03	; 3
     36c:	91 f0       	breq	.+36     	; 0x392 <Button_Tick+0x92>
     36e:	18 c0       	rjmp	.+48     	; 0x3a0 <Button_Tick+0xa0>
     370:	fa 01       	movw	r30, r20
     372:	e6 53       	subi	r30, 0x36	; 54
     374:	f7 4f       	sbci	r31, 0xF7	; 247
     376:	d0 83       	st	Z, r29
     378:	17 c0       	rjmp	.+46     	; 0x3a8 <Button_Tick+0xa8>
     37a:	fa 01       	movw	r30, r20
     37c:	e6 53       	subi	r30, 0x36	; 54
     37e:	f7 4f       	sbci	r31, 0xF7	; 247
     380:	10 83       	st	Z, r17
     382:	12 c0       	rjmp	.+36     	; 0x3a8 <Button_Tick+0xa8>
     384:	22 23       	and	r18, r18
     386:	81 f0       	breq	.+32     	; 0x3a8 <Button_Tick+0xa8>
     388:	fa 01       	movw	r30, r20
     38a:	e6 53       	subi	r30, 0x36	; 54
     38c:	f7 4f       	sbci	r31, 0xF7	; 247
     38e:	c0 83       	st	Z, r28
     390:	0b c0       	rjmp	.+22     	; 0x3a8 <Button_Tick+0xa8>
     392:	21 11       	cpse	r18, r1
     394:	09 c0       	rjmp	.+18     	; 0x3a8 <Button_Tick+0xa8>
     396:	fa 01       	movw	r30, r20
     398:	e6 53       	subi	r30, 0x36	; 54
     39a:	f7 4f       	sbci	r31, 0xF7	; 247
     39c:	d0 83       	st	Z, r29
     39e:	04 c0       	rjmp	.+8      	; 0x3a8 <Button_Tick+0xa8>
     3a0:	fa 01       	movw	r30, r20
     3a2:	e6 53       	subi	r30, 0x36	; 54
     3a4:	f7 4f       	sbci	r31, 0xF7	; 247
     3a6:	10 82       	st	Z, r1
     3a8:	9f 5f       	subi	r25, 0xFF	; 255
     3aa:	90 93 6d 08 	sts	0x086D, r25	; 0x80086d <but_i>
     3ae:	19 16       	cp	r1, r25
     3b0:	0c f0       	brlt	.+2      	; 0x3b4 <Button_Tick+0xb4>
     3b2:	b2 cf       	rjmp	.-156    	; 0x318 <Button_Tick+0x18>
     3b4:	df 91       	pop	r29
     3b6:	cf 91       	pop	r28
     3b8:	1f 91       	pop	r17
     3ba:	08 95       	ret

000003bc <ButtonSecTask>:
     3bc:	9b df       	rcall	.-202    	; 0x2f4 <Button_Init>
     3be:	89 ec       	ldi	r24, 0xC9	; 201
     3c0:	98 e0       	ldi	r25, 0x08	; 8
     3c2:	9e df       	rcall	.-196    	; 0x300 <Button_Tick>
     3c4:	84 e6       	ldi	r24, 0x64	; 100
     3c6:	90 e0       	ldi	r25, 0x00	; 0
     3c8:	6e d6       	rcall	.+3292   	; 0x10a6 <vTaskDelay>
     3ca:	f9 cf       	rjmp	.-14     	; 0x3be <ButtonSecTask+0x2>

000003cc <checksum>:
     3cc:	fc 01       	movw	r30, r24
     3ce:	20 81       	ld	r18, Z
     3d0:	02 2e       	mov	r0, r18
     3d2:	00 0c       	add	r0, r0
     3d4:	33 0b       	sbc	r19, r19
     3d6:	30 78       	andi	r19, 0x80	; 128
     3d8:	33 23       	and	r19, r19
     3da:	2c f4       	brge	.+10     	; 0x3e6 <checksum+0x1a>
     3dc:	21 50       	subi	r18, 0x01	; 1
     3de:	31 09       	sbc	r19, r1
     3e0:	3f 6f       	ori	r19, 0xFF	; 255
     3e2:	2f 5f       	subi	r18, 0xFF	; 255
     3e4:	3f 4f       	sbci	r19, 0xFF	; 255
     3e6:	d9 01       	movw	r26, r18
     3e8:	a2 58       	subi	r26, 0x82	; 130
     3ea:	be 4f       	sbci	r27, 0xFE	; 254
     3ec:	8c 91       	ld	r24, X
     3ee:	62 30       	cpi	r22, 0x02	; 2
     3f0:	71 05       	cpc	r23, r1
     3f2:	78 f0       	brcs	.+30     	; 0x412 <__FUSE_REGION_LENGTH__+0x12>
     3f4:	df 01       	movw	r26, r30
     3f6:	11 96       	adiw	r26, 0x01	; 1
     3f8:	6e 0f       	add	r22, r30
     3fa:	7f 1f       	adc	r23, r31
     3fc:	ed 91       	ld	r30, X+
     3fe:	0e 2e       	mov	r0, r30
     400:	00 0c       	add	r0, r0
     402:	ff 0b       	sbc	r31, r31
     404:	e8 27       	eor	r30, r24
     406:	e2 58       	subi	r30, 0x82	; 130
     408:	fe 4f       	sbci	r31, 0xFE	; 254
     40a:	80 81       	ld	r24, Z
     40c:	a6 17       	cp	r26, r22
     40e:	b7 07       	cpc	r27, r23
     410:	a9 f7       	brne	.-22     	; 0x3fc <checksum+0x30>
     412:	08 95       	ret

00000414 <initUSART>:
     414:	81 30       	cpi	r24, 0x01	; 1
     416:	89 f0       	breq	.+34     	; 0x43a <initUSART+0x26>
     418:	e1 ec       	ldi	r30, 0xC1	; 193
     41a:	f0 e0       	ldi	r31, 0x00	; 0
     41c:	80 81       	ld	r24, Z
     41e:	88 61       	ori	r24, 0x18	; 24
     420:	80 83       	st	Z, r24
     422:	e2 ec       	ldi	r30, 0xC2	; 194
     424:	f0 e0       	ldi	r31, 0x00	; 0
     426:	80 81       	ld	r24, Z
     428:	86 60       	ori	r24, 0x06	; 6
     42a:	80 83       	st	Z, r24
     42c:	81 e8       	ldi	r24, 0x81	; 129
     42e:	80 93 c4 00 	sts	0x00C4, r24	; 0x8000c4 <__TEXT_REGION_LENGTH__+0x7e00c4>
     432:	86 e0       	ldi	r24, 0x06	; 6
     434:	80 93 c5 00 	sts	0x00C5, r24	; 0x8000c5 <__TEXT_REGION_LENGTH__+0x7e00c5>
     438:	08 95       	ret
     43a:	e9 ec       	ldi	r30, 0xC9	; 201
     43c:	f0 e0       	ldi	r31, 0x00	; 0
     43e:	80 81       	ld	r24, Z
     440:	88 61       	ori	r24, 0x18	; 24
     442:	80 83       	st	Z, r24
     444:	ea ec       	ldi	r30, 0xCA	; 202
     446:	f0 e0       	ldi	r31, 0x00	; 0
     448:	80 81       	ld	r24, Z
     44a:	86 60       	ori	r24, 0x06	; 6
     44c:	80 83       	st	Z, r24
     44e:	81 e8       	ldi	r24, 0x81	; 129
     450:	80 93 cc 00 	sts	0x00CC, r24	; 0x8000cc <__TEXT_REGION_LENGTH__+0x7e00cc>
     454:	86 e0       	ldi	r24, 0x06	; 6
     456:	80 93 cd 00 	sts	0x00CD, r24	; 0x8000cd <__TEXT_REGION_LENGTH__+0x7e00cd>
     45a:	08 95       	ret

0000045c <USART_HasReceived>:
     45c:	81 30       	cpi	r24, 0x01	; 1
     45e:	21 f0       	breq	.+8      	; 0x468 <USART_HasReceived+0xc>
     460:	80 91 c0 00 	lds	r24, 0x00C0	; 0x8000c0 <__TEXT_REGION_LENGTH__+0x7e00c0>
     464:	80 78       	andi	r24, 0x80	; 128
     466:	08 95       	ret
     468:	80 91 c8 00 	lds	r24, 0x00C8	; 0x8000c8 <__TEXT_REGION_LENGTH__+0x7e00c8>
     46c:	80 78       	andi	r24, 0x80	; 128
     46e:	08 95       	ret

00000470 <USART_Flush>:
     470:	81 30       	cpi	r24, 0x01	; 1
     472:	29 f4       	brne	.+10     	; 0x47e <USART_Flush+0xe>
     474:	80 91 c8 00 	lds	r24, 0x00C8	; 0x8000c8 <__TEXT_REGION_LENGTH__+0x7e00c8>
     478:	88 23       	and	r24, r24
     47a:	84 f0       	brlt	.+32     	; 0x49c <USART_Flush+0x2c>
     47c:	08 95       	ret
     47e:	80 91 c0 00 	lds	r24, 0x00C0	; 0x8000c0 <__TEXT_REGION_LENGTH__+0x7e00c0>
     482:	88 23       	and	r24, r24
     484:	ac f4       	brge	.+42     	; 0x4b0 <USART_Flush+0x40>
     486:	a6 ec       	ldi	r26, 0xC6	; 198
     488:	b0 e0       	ldi	r27, 0x00	; 0
     48a:	e0 ec       	ldi	r30, 0xC0	; 192
     48c:	f0 e0       	ldi	r31, 0x00	; 0
     48e:	8c 91       	ld	r24, X
     490:	80 93 62 08 	sts	0x0862, r24	; 0x800862 <dummy.2572>
     494:	80 81       	ld	r24, Z
     496:	88 23       	and	r24, r24
     498:	d4 f3       	brlt	.-12     	; 0x48e <USART_Flush+0x1e>
     49a:	08 95       	ret
     49c:	ae ec       	ldi	r26, 0xCE	; 206
     49e:	b0 e0       	ldi	r27, 0x00	; 0
     4a0:	e8 ec       	ldi	r30, 0xC8	; 200
     4a2:	f0 e0       	ldi	r31, 0x00	; 0
     4a4:	8c 91       	ld	r24, X
     4a6:	80 93 62 08 	sts	0x0862, r24	; 0x800862 <dummy.2572>
     4aa:	80 81       	ld	r24, Z
     4ac:	88 23       	and	r24, r24
     4ae:	d4 f3       	brlt	.-12     	; 0x4a4 <USART_Flush+0x34>
     4b0:	08 95       	ret

000004b2 <USART_Send>:
     4b2:	61 30       	cpi	r22, 0x01	; 1
     4b4:	41 f0       	breq	.+16     	; 0x4c6 <USART_Send+0x14>
     4b6:	e0 ec       	ldi	r30, 0xC0	; 192
     4b8:	f0 e0       	ldi	r31, 0x00	; 0
     4ba:	90 81       	ld	r25, Z
     4bc:	95 ff       	sbrs	r25, 5
     4be:	fd cf       	rjmp	.-6      	; 0x4ba <USART_Send+0x8>
     4c0:	80 93 c6 00 	sts	0x00C6, r24	; 0x8000c6 <__TEXT_REGION_LENGTH__+0x7e00c6>
     4c4:	08 95       	ret
     4c6:	e8 ec       	ldi	r30, 0xC8	; 200
     4c8:	f0 e0       	ldi	r31, 0x00	; 0
     4ca:	90 81       	ld	r25, Z
     4cc:	95 ff       	sbrs	r25, 5
     4ce:	fd cf       	rjmp	.-6      	; 0x4ca <USART_Send+0x18>
     4d0:	80 93 ce 00 	sts	0x00CE, r24	; 0x8000ce <__TEXT_REGION_LENGTH__+0x7e00ce>
     4d4:	08 95       	ret

000004d6 <USART_Receive>:
     4d6:	81 30       	cpi	r24, 0x01	; 1
     4d8:	41 f0       	breq	.+16     	; 0x4ea <USART_Receive+0x14>
     4da:	e0 ec       	ldi	r30, 0xC0	; 192
     4dc:	f0 e0       	ldi	r31, 0x00	; 0
     4de:	80 81       	ld	r24, Z
     4e0:	88 23       	and	r24, r24
     4e2:	ec f7       	brge	.-6      	; 0x4de <USART_Receive+0x8>
     4e4:	80 91 c6 00 	lds	r24, 0x00C6	; 0x8000c6 <__TEXT_REGION_LENGTH__+0x7e00c6>
     4e8:	08 95       	ret
     4ea:	e8 ec       	ldi	r30, 0xC8	; 200
     4ec:	f0 e0       	ldi	r31, 0x00	; 0
     4ee:	80 81       	ld	r24, Z
     4f0:	88 23       	and	r24, r24
     4f2:	ec f7       	brge	.-6      	; 0x4ee <USART_Receive+0x18>
     4f4:	80 91 ce 00 	lds	r24, 0x00CE	; 0x8000ce <__TEXT_REGION_LENGTH__+0x7e00ce>
     4f8:	08 95       	ret

000004fa <rf_receive>:
     4fa:	df 92       	push	r13
     4fc:	ef 92       	push	r14
     4fe:	ff 92       	push	r15
     500:	0f 93       	push	r16
     502:	1f 93       	push	r17
     504:	cf 93       	push	r28
     506:	df 93       	push	r29
     508:	8c 01       	movw	r16, r24
     50a:	d6 2f       	mov	r29, r22
     50c:	cd 2f       	mov	r28, r29
     50e:	8d 2f       	mov	r24, r29
     510:	a5 df       	rcall	.-182    	; 0x45c <USART_HasReceived>
     512:	88 23       	and	r24, r24
     514:	d9 f3       	breq	.-10     	; 0x50c <rf_receive+0x12>
     516:	8c 2f       	mov	r24, r28
     518:	de df       	rcall	.-68     	; 0x4d6 <USART_Receive>
     51a:	8a 3a       	cpi	r24, 0xAA	; 170
     51c:	e1 f7       	brne	.-8      	; 0x516 <rf_receive+0x1c>
     51e:	8c 2f       	mov	r24, r28
     520:	9d df       	rcall	.-198    	; 0x45c <USART_HasReceived>
     522:	88 23       	and	r24, r24
     524:	e1 f3       	breq	.-8      	; 0x51e <rf_receive+0x24>
     526:	8c 2f       	mov	r24, r28
     528:	d6 df       	rcall	.-84     	; 0x4d6 <USART_Receive>
     52a:	d8 2e       	mov	r13, r24
     52c:	8a e0       	ldi	r24, 0x0A	; 10
     52e:	8d 15       	cp	r24, r13
     530:	20 f4       	brcc	.+8      	; 0x53a <rf_receive+0x40>
     532:	0f 2e       	mov	r0, r31
     534:	fa e0       	ldi	r31, 0x0A	; 10
     536:	df 2e       	mov	r13, r31
     538:	f0 2d       	mov	r31, r0
     53a:	ed 2c       	mov	r14, r13
     53c:	f1 2c       	mov	r15, r1
     53e:	1e 14       	cp	r1, r14
     540:	1f 04       	cpc	r1, r15
     542:	ac f4       	brge	.+42     	; 0x56e <rf_receive+0x74>
     544:	d0 e0       	ldi	r29, 0x00	; 0
     546:	8c 2f       	mov	r24, r28
     548:	89 df       	rcall	.-238    	; 0x45c <USART_HasReceived>
     54a:	88 23       	and	r24, r24
     54c:	e1 f3       	breq	.-8      	; 0x546 <rf_receive+0x4c>
     54e:	8c 2f       	mov	r24, r28
     550:	c2 df       	rcall	.-124    	; 0x4d6 <USART_Receive>
     552:	f8 01       	movw	r30, r16
     554:	ed 0f       	add	r30, r29
     556:	f1 1d       	adc	r31, r1
     558:	d7 fd       	sbrc	r29, 7
     55a:	fa 95       	dec	r31
     55c:	80 83       	st	Z, r24
     55e:	df 5f       	subi	r29, 0xFF	; 255
     560:	2d 2f       	mov	r18, r29
     562:	0d 2e       	mov	r0, r29
     564:	00 0c       	add	r0, r0
     566:	33 0b       	sbc	r19, r19
     568:	2e 15       	cp	r18, r14
     56a:	3f 05       	cpc	r19, r15
     56c:	64 f3       	brlt	.-40     	; 0x546 <rf_receive+0x4c>
     56e:	8c 2f       	mov	r24, r28
     570:	75 df       	rcall	.-278    	; 0x45c <USART_HasReceived>
     572:	88 23       	and	r24, r24
     574:	e1 f3       	breq	.-8      	; 0x56e <rf_receive+0x74>
     576:	8c 2f       	mov	r24, r28
     578:	ae df       	rcall	.-164    	; 0x4d6 <USART_Receive>
     57a:	c8 2f       	mov	r28, r24
     57c:	6d 2d       	mov	r22, r13
     57e:	70 e0       	ldi	r23, 0x00	; 0
     580:	c8 01       	movw	r24, r16
     582:	24 df       	rcall	.-440    	; 0x3cc <checksum>
     584:	8c 13       	cpse	r24, r28
     586:	07 c0       	rjmp	.+14     	; 0x596 <rf_receive+0x9c>
     588:	8c ed       	ldi	r24, 0xDC	; 220
     58a:	95 e0       	ldi	r25, 0x05	; 5
     58c:	5d de       	rcall	.-838    	; 0x248 <delay_ms>
     58e:	80 e0       	ldi	r24, 0x00	; 0
     590:	6f df       	rcall	.-290    	; 0x470 <USART_Flush>
     592:	81 e0       	ldi	r24, 0x01	; 1
     594:	01 c0       	rjmp	.+2      	; 0x598 <rf_receive+0x9e>
     596:	80 e0       	ldi	r24, 0x00	; 0
     598:	df 91       	pop	r29
     59a:	cf 91       	pop	r28
     59c:	1f 91       	pop	r17
     59e:	0f 91       	pop	r16
     5a0:	ff 90       	pop	r15
     5a2:	ef 90       	pop	r14
     5a4:	df 90       	pop	r13
     5a6:	08 95       	ret

000005a8 <daysInMonth>:
     5a8:	98 2f       	mov	r25, r24
     5aa:	9d 7f       	andi	r25, 0xFD	; 253
     5ac:	91 30       	cpi	r25, 0x01	; 1
     5ae:	81 f0       	breq	.+32     	; 0x5d0 <daysInMonth+0x28>
     5b0:	85 30       	cpi	r24, 0x05	; 5
     5b2:	81 f0       	breq	.+32     	; 0x5d4 <daysInMonth+0x2c>
     5b4:	99 ef       	ldi	r25, 0xF9	; 249
     5b6:	98 0f       	add	r25, r24
     5b8:	92 30       	cpi	r25, 0x02	; 2
     5ba:	70 f0       	brcs	.+28     	; 0x5d8 <daysInMonth+0x30>
     5bc:	8a 30       	cpi	r24, 0x0A	; 10
     5be:	71 f0       	breq	.+28     	; 0x5dc <daysInMonth+0x34>
     5c0:	8c 30       	cpi	r24, 0x0C	; 12
     5c2:	71 f0       	breq	.+28     	; 0x5e0 <daysInMonth+0x38>
     5c4:	82 30       	cpi	r24, 0x02	; 2
     5c6:	71 f4       	brne	.+28     	; 0x5e4 <daysInMonth+0x3c>
     5c8:	63 70       	andi	r22, 0x03	; 3
     5ca:	71 f4       	brne	.+28     	; 0x5e8 <daysInMonth+0x40>
     5cc:	8d e1       	ldi	r24, 0x1D	; 29
     5ce:	08 95       	ret
     5d0:	8f e1       	ldi	r24, 0x1F	; 31
     5d2:	08 95       	ret
     5d4:	8f e1       	ldi	r24, 0x1F	; 31
     5d6:	08 95       	ret
     5d8:	8f e1       	ldi	r24, 0x1F	; 31
     5da:	08 95       	ret
     5dc:	8f e1       	ldi	r24, 0x1F	; 31
     5de:	08 95       	ret
     5e0:	8f e1       	ldi	r24, 0x1F	; 31
     5e2:	08 95       	ret
     5e4:	8e e1       	ldi	r24, 0x1E	; 30
     5e6:	08 95       	ret
     5e8:	8c e1       	ldi	r24, 0x1C	; 28
     5ea:	08 95       	ret

000005ec <sendTime>:
     5ec:	0f 93       	push	r16
     5ee:	1f 93       	push	r17
     5f0:	cf 93       	push	r28
     5f2:	df 93       	push	r29
     5f4:	cd b7       	in	r28, 0x3d	; 61
     5f6:	de b7       	in	r29, 0x3e	; 62
     5f8:	29 97       	sbiw	r28, 0x09	; 9
     5fa:	0f b6       	in	r0, 0x3f	; 63
     5fc:	f8 94       	cli
     5fe:	de bf       	out	0x3e, r29	; 62
     600:	0f be       	out	0x3f, r0	; 63
     602:	cd bf       	out	0x3d, r28	; 61
     604:	21 e0       	ldi	r18, 0x01	; 1
     606:	82 30       	cpi	r24, 0x02	; 2
     608:	92 07       	cpc	r25, r18
     60a:	09 f4       	brne	.+2      	; 0x60e <sendTime+0x22>
     60c:	6c c0       	rjmp	.+216    	; 0x6e6 <sendTime+0xfa>
     60e:	8c 01       	movw	r16, r24
     610:	81 e0       	ldi	r24, 0x01	; 1
     612:	2e df       	rcall	.-420    	; 0x470 <USART_Flush>
     614:	f8 01       	movw	r30, r16
     616:	80 81       	ld	r24, Z
     618:	91 81       	ldd	r25, Z+1	; 0x01
     61a:	98 87       	std	Y+8, r25	; 0x08
     61c:	8f 83       	std	Y+7, r24	; 0x07
     61e:	82 81       	ldd	r24, Z+2	; 0x02
     620:	93 81       	ldd	r25, Z+3	; 0x03
     622:	9d 83       	std	Y+5, r25	; 0x05
     624:	8c 83       	std	Y+4, r24	; 0x04
     626:	84 81       	ldd	r24, Z+4	; 0x04
     628:	95 81       	ldd	r25, Z+5	; 0x05
     62a:	9a 83       	std	Y+2, r25	; 0x02
     62c:	89 83       	std	Y+1, r24	; 0x01
     62e:	19 86       	std	Y+9, r1	; 0x09
     630:	1e 82       	std	Y+6, r1	; 0x06
     632:	1b 82       	std	Y+3, r1	; 0x03
     634:	ce 01       	movw	r24, r28
     636:	07 96       	adiw	r24, 0x07	; 7
     638:	4e d7       	rcall	.+3740   	; 0x14d6 <atoi>
     63a:	8c 01       	movw	r16, r24
     63c:	49 97       	sbiw	r24, 0x19	; 25
     63e:	0c f0       	brlt	.+2      	; 0x642 <sendTime+0x56>
     640:	4c c0       	rjmp	.+152    	; 0x6da <sendTime+0xee>
     642:	ce 01       	movw	r24, r28
     644:	04 96       	adiw	r24, 0x04	; 4
     646:	47 d7       	rcall	.+3726   	; 0x14d6 <atoi>
     648:	cc 97       	sbiw	r24, 0x3c	; 60
     64a:	0c f0       	brlt	.+2      	; 0x64e <sendTime+0x62>
     64c:	48 c0       	rjmp	.+144    	; 0x6de <sendTime+0xf2>
     64e:	ce 01       	movw	r24, r28
     650:	01 96       	adiw	r24, 0x01	; 1
     652:	41 d7       	rcall	.+3714   	; 0x14d6 <atoi>
     654:	cc 97       	sbiw	r24, 0x3c	; 60
     656:	0c f0       	brlt	.+2      	; 0x65a <sendTime+0x6e>
     658:	44 c0       	rjmp	.+136    	; 0x6e2 <sendTime+0xf6>
     65a:	00 93 6a 08 	sts	0x086A, r16	; 0x80086a <hour>
     65e:	ce 01       	movw	r24, r28
     660:	04 96       	adiw	r24, 0x04	; 4
     662:	39 d7       	rcall	.+3698   	; 0x14d6 <atoi>
     664:	80 93 6b 08 	sts	0x086B, r24	; 0x80086b <min>
     668:	ce 01       	movw	r24, r28
     66a:	01 96       	adiw	r24, 0x01	; 1
     66c:	34 d7       	rcall	.+3688   	; 0x14d6 <atoi>
     66e:	80 93 6c 08 	sts	0x086C, r24	; 0x80086c <sec>
     672:	e8 ec       	ldi	r30, 0xC8	; 200
     674:	f0 e0       	ldi	r31, 0x00	; 0
     676:	80 81       	ld	r24, Z
     678:	85 ff       	sbrs	r24, 5
     67a:	fd cf       	rjmp	.-6      	; 0x676 <sendTime+0x8a>
     67c:	61 e0       	ldi	r22, 0x01	; 1
     67e:	8a ea       	ldi	r24, 0xAA	; 170
     680:	18 df       	rcall	.-464    	; 0x4b2 <USART_Send>
     682:	e8 ec       	ldi	r30, 0xC8	; 200
     684:	f0 e0       	ldi	r31, 0x00	; 0
     686:	80 81       	ld	r24, Z
     688:	85 ff       	sbrs	r24, 5
     68a:	fd cf       	rjmp	.-6      	; 0x686 <sendTime+0x9a>
     68c:	61 e0       	ldi	r22, 0x01	; 1
     68e:	80 91 6a 08 	lds	r24, 0x086A	; 0x80086a <hour>
     692:	0f df       	rcall	.-482    	; 0x4b2 <USART_Send>
     694:	e8 ec       	ldi	r30, 0xC8	; 200
     696:	f0 e0       	ldi	r31, 0x00	; 0
     698:	80 81       	ld	r24, Z
     69a:	86 ff       	sbrs	r24, 6
     69c:	fd cf       	rjmp	.-6      	; 0x698 <sendTime+0xac>
     69e:	e8 ec       	ldi	r30, 0xC8	; 200
     6a0:	f0 e0       	ldi	r31, 0x00	; 0
     6a2:	80 81       	ld	r24, Z
     6a4:	85 ff       	sbrs	r24, 5
     6a6:	fd cf       	rjmp	.-6      	; 0x6a2 <sendTime+0xb6>
     6a8:	61 e0       	ldi	r22, 0x01	; 1
     6aa:	80 91 6b 08 	lds	r24, 0x086B	; 0x80086b <min>
     6ae:	01 df       	rcall	.-510    	; 0x4b2 <USART_Send>
     6b0:	e8 ec       	ldi	r30, 0xC8	; 200
     6b2:	f0 e0       	ldi	r31, 0x00	; 0
     6b4:	80 81       	ld	r24, Z
     6b6:	86 ff       	sbrs	r24, 6
     6b8:	fd cf       	rjmp	.-6      	; 0x6b4 <sendTime+0xc8>
     6ba:	e8 ec       	ldi	r30, 0xC8	; 200
     6bc:	f0 e0       	ldi	r31, 0x00	; 0
     6be:	80 81       	ld	r24, Z
     6c0:	85 ff       	sbrs	r24, 5
     6c2:	fd cf       	rjmp	.-6      	; 0x6be <sendTime+0xd2>
     6c4:	61 e0       	ldi	r22, 0x01	; 1
     6c6:	80 91 6c 08 	lds	r24, 0x086C	; 0x80086c <sec>
     6ca:	f3 de       	rcall	.-538    	; 0x4b2 <USART_Send>
     6cc:	e8 ec       	ldi	r30, 0xC8	; 200
     6ce:	f0 e0       	ldi	r31, 0x00	; 0
     6d0:	80 81       	ld	r24, Z
     6d2:	86 ff       	sbrs	r24, 6
     6d4:	fd cf       	rjmp	.-6      	; 0x6d0 <sendTime+0xe4>
     6d6:	81 e0       	ldi	r24, 0x01	; 1
     6d8:	07 c0       	rjmp	.+14     	; 0x6e8 <sendTime+0xfc>
     6da:	80 e0       	ldi	r24, 0x00	; 0
     6dc:	05 c0       	rjmp	.+10     	; 0x6e8 <sendTime+0xfc>
     6de:	80 e0       	ldi	r24, 0x00	; 0
     6e0:	03 c0       	rjmp	.+6      	; 0x6e8 <sendTime+0xfc>
     6e2:	80 e0       	ldi	r24, 0x00	; 0
     6e4:	01 c0       	rjmp	.+2      	; 0x6e8 <sendTime+0xfc>
     6e6:	80 e0       	ldi	r24, 0x00	; 0
     6e8:	29 96       	adiw	r28, 0x09	; 9
     6ea:	0f b6       	in	r0, 0x3f	; 63
     6ec:	f8 94       	cli
     6ee:	de bf       	out	0x3e, r29	; 62
     6f0:	0f be       	out	0x3f, r0	; 63
     6f2:	cd bf       	out	0x3d, r28	; 61
     6f4:	df 91       	pop	r29
     6f6:	cf 91       	pop	r28
     6f8:	1f 91       	pop	r17
     6fa:	0f 91       	pop	r16
     6fc:	08 95       	ret

000006fe <sendDate>:
     6fe:	0f 93       	push	r16
     700:	1f 93       	push	r17
     702:	cf 93       	push	r28
     704:	df 93       	push	r29
     706:	cd b7       	in	r28, 0x3d	; 61
     708:	de b7       	in	r29, 0x3e	; 62
     70a:	29 97       	sbiw	r28, 0x09	; 9
     70c:	0f b6       	in	r0, 0x3f	; 63
     70e:	f8 94       	cli
     710:	de bf       	out	0x3e, r29	; 62
     712:	0f be       	out	0x3f, r0	; 63
     714:	cd bf       	out	0x3d, r28	; 61
     716:	21 e0       	ldi	r18, 0x01	; 1
     718:	82 30       	cpi	r24, 0x02	; 2
     71a:	92 07       	cpc	r25, r18
     71c:	09 f4       	brne	.+2      	; 0x720 <sendDate+0x22>
     71e:	7f c0       	rjmp	.+254    	; 0x81e <sendDate+0x120>
     720:	8c 01       	movw	r16, r24
     722:	81 e0       	ldi	r24, 0x01	; 1
     724:	a5 de       	rcall	.-694    	; 0x470 <USART_Flush>
     726:	f8 01       	movw	r30, r16
     728:	80 81       	ld	r24, Z
     72a:	91 81       	ldd	r25, Z+1	; 0x01
     72c:	9d 83       	std	Y+5, r25	; 0x05
     72e:	8c 83       	std	Y+4, r24	; 0x04
     730:	82 81       	ldd	r24, Z+2	; 0x02
     732:	93 81       	ldd	r25, Z+3	; 0x03
     734:	9a 83       	std	Y+2, r25	; 0x02
     736:	89 83       	std	Y+1, r24	; 0x01
     738:	84 81       	ldd	r24, Z+4	; 0x04
     73a:	95 81       	ldd	r25, Z+5	; 0x05
     73c:	98 87       	std	Y+8, r25	; 0x08
     73e:	8f 83       	std	Y+7, r24	; 0x07
     740:	1e 82       	std	Y+6, r1	; 0x06
     742:	1b 82       	std	Y+3, r1	; 0x03
     744:	19 86       	std	Y+9, r1	; 0x09
     746:	ce 01       	movw	r24, r28
     748:	01 96       	adiw	r24, 0x01	; 1
     74a:	c5 d6       	rcall	.+3466   	; 0x14d6 <atoi>
     74c:	18 2f       	mov	r17, r24
     74e:	ce 01       	movw	r24, r28
     750:	04 96       	adiw	r24, 0x04	; 4
     752:	c1 d6       	rcall	.+3458   	; 0x14d6 <atoi>
     754:	08 2f       	mov	r16, r24
     756:	ce 01       	movw	r24, r28
     758:	07 96       	adiw	r24, 0x07	; 7
     75a:	bd d6       	rcall	.+3450   	; 0x14d6 <atoi>
     75c:	11 23       	and	r17, r17
     75e:	09 f4       	brne	.+2      	; 0x762 <sendDate+0x64>
     760:	56 c0       	rjmp	.+172    	; 0x80e <sendDate+0x110>
     762:	00 23       	and	r16, r16
     764:	09 f4       	brne	.+2      	; 0x768 <sendDate+0x6a>
     766:	55 c0       	rjmp	.+170    	; 0x812 <sendDate+0x114>
     768:	88 23       	and	r24, r24
     76a:	09 f4       	brne	.+2      	; 0x76e <sendDate+0x70>
     76c:	54 c0       	rjmp	.+168    	; 0x816 <sendDate+0x118>
     76e:	84 36       	cpi	r24, 0x64	; 100
     770:	74 f0       	brlt	.+28     	; 0x78e <sendDate+0x90>
     772:	0d 30       	cpi	r16, 0x0D	; 13
     774:	64 f0       	brlt	.+24     	; 0x78e <sendDate+0x90>
     776:	68 2f       	mov	r22, r24
     778:	80 2f       	mov	r24, r16
     77a:	16 df       	rcall	.-468    	; 0x5a8 <daysInMonth>
     77c:	90 e0       	ldi	r25, 0x00	; 0
     77e:	21 2f       	mov	r18, r17
     780:	01 2e       	mov	r0, r17
     782:	00 0c       	add	r0, r0
     784:	33 0b       	sbc	r19, r19
     786:	82 17       	cp	r24, r18
     788:	93 07       	cpc	r25, r19
     78a:	0c f4       	brge	.+2      	; 0x78e <sendDate+0x90>
     78c:	46 c0       	rjmp	.+140    	; 0x81a <sendDate+0x11c>
     78e:	10 93 69 08 	sts	0x0869, r17	; 0x800869 <dday>
     792:	ce 01       	movw	r24, r28
     794:	04 96       	adiw	r24, 0x04	; 4
     796:	9f d6       	rcall	.+3390   	; 0x14d6 <atoi>
     798:	80 93 68 08 	sts	0x0868, r24	; 0x800868 <dmonth>
     79c:	ce 01       	movw	r24, r28
     79e:	07 96       	adiw	r24, 0x07	; 7
     7a0:	9a d6       	rcall	.+3380   	; 0x14d6 <atoi>
     7a2:	80 93 67 08 	sts	0x0867, r24	; 0x800867 <dyear>
     7a6:	e8 ec       	ldi	r30, 0xC8	; 200
     7a8:	f0 e0       	ldi	r31, 0x00	; 0
     7aa:	80 81       	ld	r24, Z
     7ac:	85 ff       	sbrs	r24, 5
     7ae:	fd cf       	rjmp	.-6      	; 0x7aa <sendDate+0xac>
     7b0:	61 e0       	ldi	r22, 0x01	; 1
     7b2:	8f ef       	ldi	r24, 0xFF	; 255
     7b4:	7e de       	rcall	.-772    	; 0x4b2 <USART_Send>
     7b6:	e8 ec       	ldi	r30, 0xC8	; 200
     7b8:	f0 e0       	ldi	r31, 0x00	; 0
     7ba:	80 81       	ld	r24, Z
     7bc:	85 ff       	sbrs	r24, 5
     7be:	fd cf       	rjmp	.-6      	; 0x7ba <sendDate+0xbc>
     7c0:	61 e0       	ldi	r22, 0x01	; 1
     7c2:	80 91 67 08 	lds	r24, 0x0867	; 0x800867 <dyear>
     7c6:	75 de       	rcall	.-790    	; 0x4b2 <USART_Send>
     7c8:	e8 ec       	ldi	r30, 0xC8	; 200
     7ca:	f0 e0       	ldi	r31, 0x00	; 0
     7cc:	80 81       	ld	r24, Z
     7ce:	86 ff       	sbrs	r24, 6
     7d0:	fd cf       	rjmp	.-6      	; 0x7cc <sendDate+0xce>
     7d2:	e8 ec       	ldi	r30, 0xC8	; 200
     7d4:	f0 e0       	ldi	r31, 0x00	; 0
     7d6:	80 81       	ld	r24, Z
     7d8:	85 ff       	sbrs	r24, 5
     7da:	fd cf       	rjmp	.-6      	; 0x7d6 <sendDate+0xd8>
     7dc:	61 e0       	ldi	r22, 0x01	; 1
     7de:	80 91 68 08 	lds	r24, 0x0868	; 0x800868 <dmonth>
     7e2:	67 de       	rcall	.-818    	; 0x4b2 <USART_Send>
     7e4:	e8 ec       	ldi	r30, 0xC8	; 200
     7e6:	f0 e0       	ldi	r31, 0x00	; 0
     7e8:	80 81       	ld	r24, Z
     7ea:	86 ff       	sbrs	r24, 6
     7ec:	fd cf       	rjmp	.-6      	; 0x7e8 <sendDate+0xea>
     7ee:	e8 ec       	ldi	r30, 0xC8	; 200
     7f0:	f0 e0       	ldi	r31, 0x00	; 0
     7f2:	80 81       	ld	r24, Z
     7f4:	85 ff       	sbrs	r24, 5
     7f6:	fd cf       	rjmp	.-6      	; 0x7f2 <sendDate+0xf4>
     7f8:	61 e0       	ldi	r22, 0x01	; 1
     7fa:	80 91 69 08 	lds	r24, 0x0869	; 0x800869 <dday>
     7fe:	59 de       	rcall	.-846    	; 0x4b2 <USART_Send>
     800:	e8 ec       	ldi	r30, 0xC8	; 200
     802:	f0 e0       	ldi	r31, 0x00	; 0
     804:	80 81       	ld	r24, Z
     806:	86 ff       	sbrs	r24, 6
     808:	fd cf       	rjmp	.-6      	; 0x804 <sendDate+0x106>
     80a:	81 e0       	ldi	r24, 0x01	; 1
     80c:	09 c0       	rjmp	.+18     	; 0x820 <sendDate+0x122>
     80e:	80 e0       	ldi	r24, 0x00	; 0
     810:	07 c0       	rjmp	.+14     	; 0x820 <sendDate+0x122>
     812:	80 e0       	ldi	r24, 0x00	; 0
     814:	05 c0       	rjmp	.+10     	; 0x820 <sendDate+0x122>
     816:	80 e0       	ldi	r24, 0x00	; 0
     818:	03 c0       	rjmp	.+6      	; 0x820 <sendDate+0x122>
     81a:	80 e0       	ldi	r24, 0x00	; 0
     81c:	01 c0       	rjmp	.+2      	; 0x820 <sendDate+0x122>
     81e:	80 e0       	ldi	r24, 0x00	; 0
     820:	29 96       	adiw	r28, 0x09	; 9
     822:	0f b6       	in	r0, 0x3f	; 63
     824:	f8 94       	cli
     826:	de bf       	out	0x3e, r29	; 62
     828:	0f be       	out	0x3f, r0	; 63
     82a:	cd bf       	out	0x3d, r28	; 61
     82c:	df 91       	pop	r29
     82e:	cf 91       	pop	r28
     830:	1f 91       	pop	r17
     832:	0f 91       	pop	r16
     834:	08 95       	ret

00000836 <Clock_Init>:
     836:	81 e0       	ldi	r24, 0x01	; 1
     838:	ed cd       	rjmp	.-1062   	; 0x414 <initUSART>
     83a:	08 95       	ret

0000083c <Clock_Tick>:
     83c:	81 e0       	ldi	r24, 0x01	; 1
     83e:	0e de       	rcall	.-996    	; 0x45c <USART_HasReceived>
     840:	88 23       	and	r24, r24
     842:	e1 f3       	breq	.-8      	; 0x83c <Clock_Tick>
     844:	81 e0       	ldi	r24, 0x01	; 1
     846:	47 de       	rcall	.-882    	; 0x4d6 <USART_Receive>
     848:	8a 3a       	cpi	r24, 0xAA	; 170
     84a:	e1 f7       	brne	.-8      	; 0x844 <Clock_Tick+0x8>
     84c:	81 e0       	ldi	r24, 0x01	; 1
     84e:	06 de       	rcall	.-1012   	; 0x45c <USART_HasReceived>
     850:	88 23       	and	r24, r24
     852:	e1 f3       	breq	.-8      	; 0x84c <Clock_Tick+0x10>
     854:	81 e0       	ldi	r24, 0x01	; 1
     856:	3f de       	rcall	.-898    	; 0x4d6 <USART_Receive>
     858:	80 93 6a 08 	sts	0x086A, r24	; 0x80086a <hour>
     85c:	81 e0       	ldi	r24, 0x01	; 1
     85e:	fe dd       	rcall	.-1028   	; 0x45c <USART_HasReceived>
     860:	88 23       	and	r24, r24
     862:	e1 f3       	breq	.-8      	; 0x85c <Clock_Tick+0x20>
     864:	81 e0       	ldi	r24, 0x01	; 1
     866:	37 de       	rcall	.-914    	; 0x4d6 <USART_Receive>
     868:	80 93 6b 08 	sts	0x086B, r24	; 0x80086b <min>
     86c:	81 e0       	ldi	r24, 0x01	; 1
     86e:	f6 dd       	rcall	.-1044   	; 0x45c <USART_HasReceived>
     870:	88 23       	and	r24, r24
     872:	e1 f3       	breq	.-8      	; 0x86c <Clock_Tick+0x30>
     874:	81 e0       	ldi	r24, 0x01	; 1
     876:	2f de       	rcall	.-930    	; 0x4d6 <USART_Receive>
     878:	80 93 6c 08 	sts	0x086C, r24	; 0x80086c <sec>
     87c:	81 e0       	ldi	r24, 0x01	; 1
     87e:	ee dd       	rcall	.-1060   	; 0x45c <USART_HasReceived>
     880:	88 23       	and	r24, r24
     882:	e1 f3       	breq	.-8      	; 0x87c <Clock_Tick+0x40>
     884:	81 e0       	ldi	r24, 0x01	; 1
     886:	27 de       	rcall	.-946    	; 0x4d6 <USART_Receive>
     888:	80 93 67 08 	sts	0x0867, r24	; 0x800867 <dyear>
     88c:	81 e0       	ldi	r24, 0x01	; 1
     88e:	e6 dd       	rcall	.-1076   	; 0x45c <USART_HasReceived>
     890:	88 23       	and	r24, r24
     892:	e1 f3       	breq	.-8      	; 0x88c <Clock_Tick+0x50>
     894:	81 e0       	ldi	r24, 0x01	; 1
     896:	1f de       	rcall	.-962    	; 0x4d6 <USART_Receive>
     898:	80 93 68 08 	sts	0x0868, r24	; 0x800868 <dmonth>
     89c:	81 e0       	ldi	r24, 0x01	; 1
     89e:	de dd       	rcall	.-1092   	; 0x45c <USART_HasReceived>
     8a0:	88 23       	and	r24, r24
     8a2:	e1 f3       	breq	.-8      	; 0x89c <Clock_Tick+0x60>
     8a4:	81 e0       	ldi	r24, 0x01	; 1
     8a6:	17 de       	rcall	.-978    	; 0x4d6 <USART_Receive>
     8a8:	80 93 69 08 	sts	0x0869, r24	; 0x800869 <dday>
     8ac:	08 95       	ret

000008ae <ClockSecTask>:
     8ae:	c3 df       	rcall	.-122    	; 0x836 <Clock_Init>
     8b0:	c5 df       	rcall	.-118    	; 0x83c <Clock_Tick>
     8b2:	8a ef       	ldi	r24, 0xFA	; 250
     8b4:	90 e0       	ldi	r25, 0x00	; 0
     8b6:	f7 d3       	rcall	.+2030   	; 0x10a6 <vTaskDelay>
     8b8:	fb cf       	rjmp	.-10     	; 0x8b0 <ClockSecTask+0x2>

000008ba <ClockPrint_Tick>:

}

void ClockPrint_Tick()
{	
     8ba:	cf 93       	push	r28
     8bc:	df 93       	push	r29
	if(clkLCDEnable){	
     8be:	80 91 66 08 	lds	r24, 0x0866	; 0x800866 <clkLCDEnable>
     8c2:	88 23       	and	r24, r24
     8c4:	c1 f1       	breq	.+112    	; 0x936 <ClockPrint_Tick+0x7c>
		sprintf(timeDisplay, "%02d:%02d:%02d", hour, min, sec);
     8c6:	80 91 6c 08 	lds	r24, 0x086C	; 0x80086c <sec>
     8ca:	1f 92       	push	r1
     8cc:	8f 93       	push	r24
     8ce:	80 91 6b 08 	lds	r24, 0x086B	; 0x80086b <min>
     8d2:	1f 92       	push	r1
     8d4:	8f 93       	push	r24
     8d6:	80 91 6a 08 	lds	r24, 0x086A	; 0x80086a <hour>
     8da:	1f 92       	push	r1
     8dc:	8f 93       	push	r24
     8de:	84 e0       	ldi	r24, 0x04	; 4
     8e0:	91 e0       	ldi	r25, 0x01	; 1
     8e2:	9f 93       	push	r25
     8e4:	8f 93       	push	r24
     8e6:	cb ec       	ldi	r28, 0xCB	; 203
     8e8:	d8 e0       	ldi	r29, 0x08	; 8
     8ea:	df 93       	push	r29
     8ec:	cf 93       	push	r28
     8ee:	2e d6       	rcall	.+3164   	; 0x154c <sprintf>
		LCD_WriteString(1, timeDisplay);
     8f0:	be 01       	movw	r22, r28
     8f2:	81 e0       	ldi	r24, 0x01	; 1
     8f4:	ea dc       	rcall	.-1580   	; 0x2ca <LCD_WriteString>
		sprintf(timeDisplay, "%02d/%02d/%02d", dmonth, dday, dyear);
     8f6:	80 91 67 08 	lds	r24, 0x0867	; 0x800867 <dyear>
     8fa:	1f 92       	push	r1
     8fc:	8f 93       	push	r24
     8fe:	80 91 69 08 	lds	r24, 0x0869	; 0x800869 <dday>
     902:	1f 92       	push	r1
     904:	8f 93       	push	r24
     906:	80 91 68 08 	lds	r24, 0x0868	; 0x800868 <dmonth>
     90a:	1f 92       	push	r1
     90c:	8f 93       	push	r24
     90e:	83 e1       	ldi	r24, 0x13	; 19
     910:	91 e0       	ldi	r25, 0x01	; 1
     912:	9f 93       	push	r25
     914:	8f 93       	push	r24
     916:	df 93       	push	r29
     918:	cf 93       	push	r28
     91a:	18 d6       	rcall	.+3120   	; 0x154c <sprintf>
		LCD_WriteString(17, timeDisplay);
     91c:	be 01       	movw	r22, r28
     91e:	81 e1       	ldi	r24, 0x11	; 17
     920:	d4 dc       	rcall	.-1624   	; 0x2ca <LCD_WriteString>
		LCD_Cursor(0);
     922:	80 e0       	ldi	r24, 0x00	; 0
     924:	ca dc       	rcall	.-1644   	; 0x2ba <LCD_Cursor>
     926:	8d b7       	in	r24, 0x3d	; 61
     928:	9e b7       	in	r25, 0x3e	; 62
     92a:	44 96       	adiw	r24, 0x14	; 20
     92c:	0f b6       	in	r0, 0x3f	; 63
     92e:	f8 94       	cli
     930:	9e bf       	out	0x3e, r25	; 62
     932:	0f be       	out	0x3f, r0	; 63
     934:	8d bf       	out	0x3d, r24	; 61
	}
}
     936:	df 91       	pop	r29
     938:	cf 91       	pop	r28
     93a:	08 95       	ret

0000093c <ClockPrintSecTask>:
void ClockPrintSecTask()
{
	ClockPrint_Init();
	for (;;)
	{
		ClockPrint_Tick();
     93c:	be df       	rcall	.-132    	; 0x8ba <ClockPrint_Tick>
		vTaskDelay(1000);
     93e:	88 ee       	ldi	r24, 0xE8	; 232
     940:	93 e0       	ldi	r25, 0x03	; 3
     942:	b1 d3       	rcall	.+1890   	; 0x10a6 <vTaskDelay>
	}
     944:	fb cf       	rjmp	.-10     	; 0x93c <ClockPrintSecTask>

00000946 <Demo_Init>:

char code_received = 0;
enum CodeMode {PASSWD, TIME, DATE, EVENTS} code_mode;
void Demo_Init()
{
	initUSART(0);
     946:	80 e0       	ldi	r24, 0x00	; 0
     948:	65 dd       	rcall	.-1334   	; 0x414 <initUSART>
	LCD_init();
     94a:	9f dc       	rcall	.-1730   	; 0x28a <LCD_init>
	LCD_ClearScreen();
     94c:	9b dc       	rcall	.-1738   	; 0x284 <LCD_ClearScreen>
	code_mode = PASSWD;
     94e:	10 92 d5 08 	sts	0x08D5, r1	; 0x8008d5 <code_mode>
     952:	08 95       	ret

00000954 <Demo_Tick>:
}

void Demo_Tick()
{	
     954:	cf 93       	push	r28
     956:	df 93       	push	r29
     958:	cd b7       	in	r28, 0x3d	; 61
     95a:	de b7       	in	r29, 0x3e	; 62
     95c:	64 97       	sbiw	r28, 0x14	; 20
     95e:	0f b6       	in	r0, 0x3f	; 63
     960:	f8 94       	cli
     962:	de bf       	out	0x3e, r29	; 62
     964:	0f be       	out	0x3f, r0	; 63
     966:	cd bf       	out	0x3d, r28	; 61
	unsigned char msg[20];
		
	switch (code_mode){
     968:	80 91 d5 08 	lds	r24, 0x08D5	; 0x8008d5 <code_mode>
     96c:	81 30       	cpi	r24, 0x01	; 1
     96e:	39 f1       	breq	.+78     	; 0x9be <Demo_Tick+0x6a>
     970:	20 f0       	brcs	.+8      	; 0x97a <Demo_Tick+0x26>
     972:	82 30       	cpi	r24, 0x02	; 2
     974:	09 f4       	brne	.+2      	; 0x978 <Demo_Tick+0x24>
     976:	48 c0       	rjmp	.+144    	; 0xa08 <Demo_Tick+0xb4>
     978:	69 c0       	rjmp	.+210    	; 0xa4c <Demo_Tick+0xf8>
		case PASSWD:
		clkLCDEnable = 1;
     97a:	81 e0       	ldi	r24, 0x01	; 1
     97c:	80 93 66 08 	sts	0x0866, r24	; 0x800866 <clkLCDEnable>
		
		if (!rf_receive(msg, 0))
     980:	60 e0       	ldi	r22, 0x00	; 0
     982:	ce 01       	movw	r24, r28
     984:	01 96       	adiw	r24, 0x01	; 1
     986:	b9 dd       	rcall	.-1166   	; 0x4fa <rf_receive>
     988:	88 23       	and	r24, r24
     98a:	09 f4       	brne	.+2      	; 0x98e <Demo_Tick+0x3a>
     98c:	62 c0       	rjmp	.+196    	; 0xa52 <Demo_Tick+0xfe>
			return;
			
		if (msg[0] == '*'){
     98e:	89 81       	ldd	r24, Y+1	; 0x01
     990:	8a 32       	cpi	r24, 0x2A	; 42
     992:	31 f4       	brne	.+12     	; 0x9a0 <Demo_Tick+0x4c>
			clkLCDEnable = 0;
     994:	10 92 66 08 	sts	0x0866, r1	; 0x800866 <clkLCDEnable>
			code_mode = TIME;
     998:	81 e0       	ldi	r24, 0x01	; 1
     99a:	80 93 d5 08 	sts	0x08D5, r24	; 0x8008d5 <code_mode>
			break;
     99e:	56 c0       	rjmp	.+172    	; 0xa4c <Demo_Tick+0xf8>
		}
		else if (msg[0] == '#'){
     9a0:	83 32       	cpi	r24, 0x23	; 35
     9a2:	31 f4       	brne	.+12     	; 0x9b0 <Demo_Tick+0x5c>
			clkLCDEnable = 0;
     9a4:	10 92 66 08 	sts	0x0866, r1	; 0x800866 <clkLCDEnable>
			code_mode = DATE;
     9a8:	82 e0       	ldi	r24, 0x02	; 2
     9aa:	80 93 d5 08 	sts	0x08D5, r24	; 0x8008d5 <code_mode>
			break;
     9ae:	4e c0       	rjmp	.+156    	; 0xa4c <Demo_Tick+0xf8>
		}
		msg[CODE_SIZE] = '\0';
     9b0:	1f 82       	std	Y+7, r1	; 0x07
		LCD_WriteString(10,msg);
     9b2:	be 01       	movw	r22, r28
     9b4:	6f 5f       	subi	r22, 0xFF	; 255
     9b6:	7f 4f       	sbci	r23, 0xFF	; 255
     9b8:	8a e0       	ldi	r24, 0x0A	; 10
     9ba:	87 dc       	rcall	.-1778   	; 0x2ca <LCD_WriteString>

		break;
     9bc:	47 c0       	rjmp	.+142    	; 0xa4c <Demo_Tick+0xf8>
			
		case TIME:
		LCD_ClearScreen();
     9be:	62 dc       	rcall	.-1852   	; 0x284 <LCD_ClearScreen>
		LCD_WriteString(1,"SET TIME");
     9c0:	62 e2       	ldi	r22, 0x22	; 34
     9c2:	71 e0       	ldi	r23, 0x01	; 1
     9c4:	81 e0       	ldi	r24, 0x01	; 1
     9c6:	81 dc       	rcall	.-1790   	; 0x2ca <LCD_WriteString>
		
		if (!rf_receive(msg,0))
     9c8:	60 e0       	ldi	r22, 0x00	; 0
     9ca:	ce 01       	movw	r24, r28
     9cc:	01 96       	adiw	r24, 0x01	; 1
     9ce:	95 dd       	rcall	.-1238   	; 0x4fa <rf_receive>
     9d0:	88 23       	and	r24, r24
     9d2:	09 f4       	brne	.+2      	; 0x9d6 <Demo_Tick+0x82>
     9d4:	3e c0       	rjmp	.+124    	; 0xa52 <Demo_Tick+0xfe>
			return;
		
		if (msg[0] == '*'){
     9d6:	89 81       	ldd	r24, Y+1	; 0x01
     9d8:	8a 32       	cpi	r24, 0x2A	; 42
     9da:	31 f4       	brne	.+12     	; 0x9e8 <Demo_Tick+0x94>
			clkLCDEnable = 0;
     9dc:	10 92 66 08 	sts	0x0866, r1	; 0x800866 <clkLCDEnable>
			code_mode = DATE;
     9e0:	82 e0       	ldi	r24, 0x02	; 2
     9e2:	80 93 d5 08 	sts	0x08D5, r24	; 0x8008d5 <code_mode>
			break;
     9e6:	32 c0       	rjmp	.+100    	; 0xa4c <Demo_Tick+0xf8>
		}
		else if (msg[0] == '#'){
     9e8:	83 32       	cpi	r24, 0x23	; 35
     9ea:	29 f4       	brne	.+10     	; 0x9f6 <Demo_Tick+0xa2>
			clkLCDEnable = 0;
     9ec:	10 92 66 08 	sts	0x0866, r1	; 0x800866 <clkLCDEnable>
			code_mode = PASSWD;
     9f0:	10 92 d5 08 	sts	0x08D5, r1	; 0x8008d5 <code_mode>
			break;
     9f4:	2b c0       	rjmp	.+86     	; 0xa4c <Demo_Tick+0xf8>
		}
		msg[6] = '\0';
     9f6:	1f 82       	std	Y+7, r1	; 0x07
		
		if (sendTime(msg))
     9f8:	ce 01       	movw	r24, r28
     9fa:	01 96       	adiw	r24, 0x01	; 1
     9fc:	f7 dd       	rcall	.-1042   	; 0x5ec <sendTime>
     9fe:	88 23       	and	r24, r24
     a00:	29 f1       	breq	.+74     	; 0xa4c <Demo_Tick+0xf8>
			code_mode = PASSWD;
     a02:	10 92 d5 08 	sts	0x08D5, r1	; 0x8008d5 <code_mode>
     a06:	22 c0       	rjmp	.+68     	; 0xa4c <Demo_Tick+0xf8>

		break;
		
		case DATE:
		LCD_ClearScreen();
     a08:	3d dc       	rcall	.-1926   	; 0x284 <LCD_ClearScreen>
		LCD_WriteString(1,"SET DATE");
     a0a:	6b e2       	ldi	r22, 0x2B	; 43
     a0c:	71 e0       	ldi	r23, 0x01	; 1
     a0e:	81 e0       	ldi	r24, 0x01	; 1
     a10:	5c dc       	rcall	.-1864   	; 0x2ca <LCD_WriteString>
		
		if (!rf_receive(msg,0)){
     a12:	60 e0       	ldi	r22, 0x00	; 0
     a14:	ce 01       	movw	r24, r28
     a16:	01 96       	adiw	r24, 0x01	; 1
     a18:	70 dd       	rcall	.-1312   	; 0x4fa <rf_receive>
     a1a:	88 23       	and	r24, r24
     a1c:	d1 f0       	breq	.+52     	; 0xa52 <Demo_Tick+0xfe>
			return;
		}
		
		if (msg[0] == '*'){
     a1e:	89 81       	ldd	r24, Y+1	; 0x01
     a20:	8a 32       	cpi	r24, 0x2A	; 42
     a22:	29 f4       	brne	.+10     	; 0xa2e <Demo_Tick+0xda>
			clkLCDEnable = 0;
     a24:	10 92 66 08 	sts	0x0866, r1	; 0x800866 <clkLCDEnable>
			code_mode = PASSWD;
     a28:	10 92 d5 08 	sts	0x08D5, r1	; 0x8008d5 <code_mode>
			break;
     a2c:	0f c0       	rjmp	.+30     	; 0xa4c <Demo_Tick+0xf8>
		}
		else if (msg[0] == '#'){
     a2e:	83 32       	cpi	r24, 0x23	; 35
     a30:	31 f4       	brne	.+12     	; 0xa3e <Demo_Tick+0xea>
			clkLCDEnable = 0;
     a32:	10 92 66 08 	sts	0x0866, r1	; 0x800866 <clkLCDEnable>
			code_mode = TIME;
     a36:	81 e0       	ldi	r24, 0x01	; 1
     a38:	80 93 d5 08 	sts	0x08D5, r24	; 0x8008d5 <code_mode>
			break;
     a3c:	07 c0       	rjmp	.+14     	; 0xa4c <Demo_Tick+0xf8>
		}
		msg[6] = '\0';
     a3e:	1f 82       	std	Y+7, r1	; 0x07
		
		if (sendDate(msg))
     a40:	ce 01       	movw	r24, r28
     a42:	01 96       	adiw	r24, 0x01	; 1
     a44:	5c de       	rcall	.-840    	; 0x6fe <sendDate>
     a46:	81 11       	cpse	r24, r1
			code_mode = PASSWD;
     a48:	10 92 d5 08 	sts	0x08D5, r1	; 0x8008d5 <code_mode>
		
		break;
	}
	code_received = 1;
     a4c:	81 e0       	ldi	r24, 0x01	; 1
     a4e:	80 93 65 08 	sts	0x0865, r24	; 0x800865 <code_received>
}
     a52:	64 96       	adiw	r28, 0x14	; 20
     a54:	0f b6       	in	r0, 0x3f	; 63
     a56:	f8 94       	cli
     a58:	de bf       	out	0x3e, r29	; 62
     a5a:	0f be       	out	0x3f, r0	; 63
     a5c:	cd bf       	out	0x3d, r28	; 61
     a5e:	df 91       	pop	r29
     a60:	cf 91       	pop	r28
     a62:	08 95       	ret

00000a64 <DemoSecTask>:

void DemoSecTask()
{
	Demo_Init();
     a64:	70 df       	rcall	.-288    	; 0x946 <Demo_Init>
	for (;;)
	{
		Demo_Tick();
     a66:	76 df       	rcall	.-276    	; 0x954 <Demo_Tick>
		vTaskDelay(100);
     a68:	84 e6       	ldi	r24, 0x64	; 100
     a6a:	90 e0       	ldi	r25, 0x00	; 0
     a6c:	1c d3       	rcall	.+1592   	; 0x10a6 <vTaskDelay>
	}
     a6e:	fb cf       	rjmp	.-10     	; 0xa66 <DemoSecTask+0x2>

00000a70 <Backlight_Tick>:
}

unsigned int backlightTimer = 0;
void Backlight_Tick()
{
	if (button[0]){
     a70:	80 91 c9 08 	lds	r24, 0x08C9	; 0x8008c9 <button>
     a74:	88 23       	and	r24, r24
     a76:	49 f0       	breq	.+18     	; 0xa8a <Backlight_Tick+0x1a>
		backlightTimer = 1;
     a78:	81 e0       	ldi	r24, 0x01	; 1
     a7a:	90 e0       	ldi	r25, 0x00	; 0
     a7c:	90 93 64 08 	sts	0x0864, r25	; 0x800864 <backlightTimer+0x1>
     a80:	80 93 63 08 	sts	0x0863, r24	; 0x800863 <backlightTimer>
		button[0] = 0;
     a84:	10 92 c9 08 	sts	0x08C9, r1	; 0x8008c9 <button>
     a88:	12 c0       	rjmp	.+36     	; 0xaae <Backlight_Tick+0x3e>
	}
	else if (backlightTimer || code_received){
     a8a:	80 91 63 08 	lds	r24, 0x0863	; 0x800863 <backlightTimer>
     a8e:	90 91 64 08 	lds	r25, 0x0864	; 0x800864 <backlightTimer+0x1>
     a92:	00 97       	sbiw	r24, 0x00	; 0
     a94:	21 f4       	brne	.+8      	; 0xa9e <Backlight_Tick+0x2e>
     a96:	20 91 65 08 	lds	r18, 0x0865	; 0x800865 <code_received>
     a9a:	22 23       	and	r18, r18
     a9c:	99 f0       	breq	.+38     	; 0xac4 <Backlight_Tick+0x54>
		backlightTimer++;
     a9e:	01 96       	adiw	r24, 0x01	; 1
     aa0:	90 93 64 08 	sts	0x0864, r25	; 0x800864 <backlightTimer+0x1>
     aa4:	80 93 63 08 	sts	0x0863, r24	; 0x800863 <backlightTimer>
		code_received = 0;
     aa8:	10 92 65 08 	sts	0x0865, r1	; 0x800865 <code_received>
		PORTC |= 0x80;
     aac:	47 9a       	sbi	0x08, 7	; 8
	}
	
	if (backlightTimer >= 60){
     aae:	80 91 63 08 	lds	r24, 0x0863	; 0x800863 <backlightTimer>
     ab2:	90 91 64 08 	lds	r25, 0x0864	; 0x800864 <backlightTimer+0x1>
     ab6:	cc 97       	sbiw	r24, 0x3c	; 60
     ab8:	28 f0       	brcs	.+10     	; 0xac4 <Backlight_Tick+0x54>
		PORTC &= 0x7F;
     aba:	47 98       	cbi	0x08, 7	; 8
		backlightTimer = 0;
     abc:	10 92 64 08 	sts	0x0864, r1	; 0x800864 <backlightTimer+0x1>
     ac0:	10 92 63 08 	sts	0x0863, r1	; 0x800863 <backlightTimer>
     ac4:	08 95       	ret

00000ac6 <BacklightSecTask>:
}
void BacklightSecTask()
{
	for (;;)
	{
		Backlight_Tick();
     ac6:	d4 df       	rcall	.-88     	; 0xa70 <Backlight_Tick>
		vTaskDelay(100);
     ac8:	84 e6       	ldi	r24, 0x64	; 100
     aca:	90 e0       	ldi	r25, 0x00	; 0
     acc:	ec d2       	rcall	.+1496   	; 0x10a6 <vTaskDelay>
	}	
     ace:	fb cf       	rjmp	.-10     	; 0xac6 <BacklightSecTask>

00000ad0 <StartSecPulse>:
}

void StartSecPulse(unsigned portBASE_TYPE Priority)
{
     ad0:	af 92       	push	r10
     ad2:	bf 92       	push	r11
     ad4:	cf 92       	push	r12
     ad6:	df 92       	push	r13
     ad8:	ef 92       	push	r14
     ada:	ff 92       	push	r15
     adc:	0f 93       	push	r16
     ade:	cf 93       	push	r28
	xTaskCreate(DemoSecTask, (signed portCHAR *)"DemoSecTask", configMINIMAL_STACK_SIZE, NULL, Priority, NULL );
     ae0:	a1 2c       	mov	r10, r1
     ae2:	b1 2c       	mov	r11, r1
     ae4:	c1 2c       	mov	r12, r1
     ae6:	d1 2c       	mov	r13, r1
     ae8:	e1 2c       	mov	r14, r1
     aea:	f1 2c       	mov	r15, r1
     aec:	08 2f       	mov	r16, r24
     aee:	20 e0       	ldi	r18, 0x00	; 0
     af0:	30 e0       	ldi	r19, 0x00	; 0
     af2:	45 e5       	ldi	r20, 0x55	; 85
     af4:	50 e0       	ldi	r21, 0x00	; 0
     af6:	64 e3       	ldi	r22, 0x34	; 52
     af8:	71 e0       	ldi	r23, 0x01	; 1
     afa:	82 e3       	ldi	r24, 0x32	; 50
     afc:	95 e0       	ldi	r25, 0x05	; 5
     afe:	6f d0       	rcall	.+222    	; 0xbde <xTaskGenericCreate>
	xTaskCreate(ClockSecTask, (signed portCHAR *)"ClockSecTask", configMINIMAL_STACK_SIZE, NULL, Priority, NULL );
     b00:	20 e0       	ldi	r18, 0x00	; 0
     b02:	30 e0       	ldi	r19, 0x00	; 0
     b04:	45 e5       	ldi	r20, 0x55	; 85
     b06:	50 e0       	ldi	r21, 0x00	; 0
     b08:	60 e4       	ldi	r22, 0x40	; 64
     b0a:	71 e0       	ldi	r23, 0x01	; 1
     b0c:	87 e5       	ldi	r24, 0x57	; 87
     b0e:	94 e0       	ldi	r25, 0x04	; 4
     b10:	66 d0       	rcall	.+204    	; 0xbde <xTaskGenericCreate>
	xTaskCreate(ClockPrintSecTask, (signed portCHAR *)"ClockPrintSecTask", configMINIMAL_STACK_SIZE, NULL, Priority, NULL );
     b12:	20 e0       	ldi	r18, 0x00	; 0
     b14:	30 e0       	ldi	r19, 0x00	; 0
     b16:	45 e5       	ldi	r20, 0x55	; 85
     b18:	50 e0       	ldi	r21, 0x00	; 0
     b1a:	6d e4       	ldi	r22, 0x4D	; 77
     b1c:	71 e0       	ldi	r23, 0x01	; 1
     b1e:	8e e9       	ldi	r24, 0x9E	; 158
     b20:	94 e0       	ldi	r25, 0x04	; 4
     b22:	5d d0       	rcall	.+186    	; 0xbde <xTaskGenericCreate>
	xTaskCreate(ButtonSecTask, (signed portCHAR *)"ButtonSecTask", configMINIMAL_STACK_SIZE, NULL, Priority, NULL );
     b24:	20 e0       	ldi	r18, 0x00	; 0
     b26:	30 e0       	ldi	r19, 0x00	; 0
     b28:	45 e5       	ldi	r20, 0x55	; 85
     b2a:	50 e0       	ldi	r21, 0x00	; 0
     b2c:	6f e5       	ldi	r22, 0x5F	; 95
     b2e:	71 e0       	ldi	r23, 0x01	; 1
     b30:	8e ed       	ldi	r24, 0xDE	; 222
     b32:	91 e0       	ldi	r25, 0x01	; 1
     b34:	54 d0       	rcall	.+168    	; 0xbde <xTaskGenericCreate>
	xTaskCreate(BacklightSecTask, (signed portCHAR *)"BacklightSecTask", configMINIMAL_STACK_SIZE, NULL, Priority, NULL );
     b36:	20 e0       	ldi	r18, 0x00	; 0
     b38:	30 e0       	ldi	r19, 0x00	; 0
     b3a:	45 e5       	ldi	r20, 0x55	; 85
     b3c:	50 e0       	ldi	r21, 0x00	; 0
     b3e:	6d e6       	ldi	r22, 0x6D	; 109
     b40:	71 e0       	ldi	r23, 0x01	; 1
     b42:	83 e6       	ldi	r24, 0x63	; 99
     b44:	95 e0       	ldi	r25, 0x05	; 5
     b46:	4b d0       	rcall	.+150    	; 0xbde <xTaskGenericCreate>

}
     b48:	cf 91       	pop	r28
     b4a:	0f 91       	pop	r16
     b4c:	ff 90       	pop	r15
     b4e:	ef 90       	pop	r14
     b50:	df 90       	pop	r13
     b52:	cf 90       	pop	r12
     b54:	bf 90       	pop	r11
     b56:	af 90       	pop	r10
     b58:	08 95       	ret

00000b5a <main>:
 
int main(void) 
{ 
	DDRA = 0xFF;
     b5a:	8f ef       	ldi	r24, 0xFF	; 255
     b5c:	81 b9       	out	0x01, r24	; 1
	DDRB = 0xFF ;
     b5e:	84 b9       	out	0x04, r24	; 4
	DDRC = 0xF0; PORTC = 0x0F;
     b60:	80 ef       	ldi	r24, 0xF0	; 240
     b62:	87 b9       	out	0x07, r24	; 7
     b64:	8f e0       	ldi	r24, 0x0F	; 15
     b66:	88 b9       	out	0x08, r24	; 8
   //Start Tasks  
   StartSecPulse(1);
     b68:	81 e0       	ldi	r24, 0x01	; 1
     b6a:	b2 df       	rcall	.-156    	; 0xad0 <StartSecPulse>
   //Run Scheduler 
   vTaskStartScheduler(); 	   
     b6c:	2b d1       	rcall	.+598    	; 0xdc4 <vTaskStartScheduler>
   return 0; 
     b6e:	80 e0       	ldi	r24, 0x00	; 0
     b70:	90 e0       	ldi	r25, 0x00	; 0
     b72:	08 95       	ret

00000b74 <prvAddCurrentTaskToDelayedList>:
     b74:	cf 93       	push	r28
     b76:	df 93       	push	r29
     b78:	ec 01       	movw	r28, r24
     b7a:	e0 91 c6 08 	lds	r30, 0x08C6	; 0x8008c6 <pxCurrentTCB>
     b7e:	f0 91 c7 08 	lds	r31, 0x08C7	; 0x8008c7 <pxCurrentTCB+0x1>
     b82:	93 83       	std	Z+3, r25	; 0x03
     b84:	82 83       	std	Z+2, r24	; 0x02
     b86:	80 91 76 08 	lds	r24, 0x0876	; 0x800876 <xTickCount>
     b8a:	90 91 77 08 	lds	r25, 0x0877	; 0x800877 <xTickCount+0x1>
     b8e:	c8 17       	cp	r28, r24
     b90:	d9 07       	cpc	r29, r25
     b92:	60 f4       	brcc	.+24     	; 0xbac <prvAddCurrentTaskToDelayedList+0x38>
     b94:	60 91 c6 08 	lds	r22, 0x08C6	; 0x8008c6 <pxCurrentTCB>
     b98:	70 91 c7 08 	lds	r23, 0x08C7	; 0x8008c7 <pxCurrentTCB+0x1>
     b9c:	80 91 8c 08 	lds	r24, 0x088C	; 0x80088c <pxOverflowDelayedTaskList>
     ba0:	90 91 8d 08 	lds	r25, 0x088D	; 0x80088d <pxOverflowDelayedTaskList+0x1>
     ba4:	6e 5f       	subi	r22, 0xFE	; 254
     ba6:	7f 4f       	sbci	r23, 0xFF	; 255
     ba8:	ee da       	rcall	.-2596   	; 0x186 <vListInsert>
     baa:	16 c0       	rjmp	.+44     	; 0xbd8 <prvAddCurrentTaskToDelayedList+0x64>
     bac:	60 91 c6 08 	lds	r22, 0x08C6	; 0x8008c6 <pxCurrentTCB>
     bb0:	70 91 c7 08 	lds	r23, 0x08C7	; 0x8008c7 <pxCurrentTCB+0x1>
     bb4:	80 91 8e 08 	lds	r24, 0x088E	; 0x80088e <pxDelayedTaskList>
     bb8:	90 91 8f 08 	lds	r25, 0x088F	; 0x80088f <pxDelayedTaskList+0x1>
     bbc:	6e 5f       	subi	r22, 0xFE	; 254
     bbe:	7f 4f       	sbci	r23, 0xFF	; 255
     bc0:	e2 da       	rcall	.-2620   	; 0x186 <vListInsert>
     bc2:	80 91 00 01 	lds	r24, 0x0100	; 0x800100 <__data_start>
     bc6:	90 91 01 01 	lds	r25, 0x0101	; 0x800101 <__data_start+0x1>
     bca:	c8 17       	cp	r28, r24
     bcc:	d9 07       	cpc	r29, r25
     bce:	20 f4       	brcc	.+8      	; 0xbd8 <prvAddCurrentTaskToDelayedList+0x64>
     bd0:	d0 93 01 01 	sts	0x0101, r29	; 0x800101 <__data_start+0x1>
     bd4:	c0 93 00 01 	sts	0x0100, r28	; 0x800100 <__data_start>
     bd8:	df 91       	pop	r29
     bda:	cf 91       	pop	r28
     bdc:	08 95       	ret

00000bde <xTaskGenericCreate>:
     bde:	4f 92       	push	r4
     be0:	5f 92       	push	r5
     be2:	6f 92       	push	r6
     be4:	7f 92       	push	r7
     be6:	8f 92       	push	r8
     be8:	9f 92       	push	r9
     bea:	af 92       	push	r10
     bec:	bf 92       	push	r11
     bee:	cf 92       	push	r12
     bf0:	df 92       	push	r13
     bf2:	ef 92       	push	r14
     bf4:	ff 92       	push	r15
     bf6:	0f 93       	push	r16
     bf8:	1f 93       	push	r17
     bfa:	cf 93       	push	r28
     bfc:	df 93       	push	r29
     bfe:	5c 01       	movw	r10, r24
     c00:	4b 01       	movw	r8, r22
     c02:	3a 01       	movw	r6, r20
     c04:	29 01       	movw	r4, r18
     c06:	81 e2       	ldi	r24, 0x21	; 33
     c08:	90 e0       	ldi	r25, 0x00	; 0
     c0a:	5f da       	rcall	.-2882   	; 0xca <pvPortMalloc>
     c0c:	ec 01       	movw	r28, r24
     c0e:	89 2b       	or	r24, r25
     c10:	09 f4       	brne	.+2      	; 0xc14 <xTaskGenericCreate+0x36>
     c12:	c6 c0       	rjmp	.+396    	; 0xda0 <xTaskGenericCreate+0x1c2>
     c14:	c1 14       	cp	r12, r1
     c16:	d1 04       	cpc	r13, r1
     c18:	09 f0       	breq	.+2      	; 0xc1c <xTaskGenericCreate+0x3e>
     c1a:	be c0       	rjmp	.+380    	; 0xd98 <xTaskGenericCreate+0x1ba>
     c1c:	c3 01       	movw	r24, r6
     c1e:	55 da       	rcall	.-2902   	; 0xca <pvPortMalloc>
     c20:	98 8f       	std	Y+24, r25	; 0x18
     c22:	8f 8b       	std	Y+23, r24	; 0x17
     c24:	00 97       	sbiw	r24, 0x00	; 0
     c26:	19 f4       	brne	.+6      	; 0xc2e <xTaskGenericCreate+0x50>
     c28:	ce 01       	movw	r24, r28
     c2a:	73 da       	rcall	.-2842   	; 0x112 <vPortFree>
     c2c:	b9 c0       	rjmp	.+370    	; 0xda0 <xTaskGenericCreate+0x1c2>
     c2e:	a3 01       	movw	r20, r6
     c30:	65 ea       	ldi	r22, 0xA5	; 165
     c32:	70 e0       	ldi	r23, 0x00	; 0
     c34:	6d d4       	rcall	.+2266   	; 0x1510 <memset>
     c36:	93 01       	movw	r18, r6
     c38:	21 50       	subi	r18, 0x01	; 1
     c3a:	31 09       	sbc	r19, r1
     c3c:	8f 89       	ldd	r24, Y+23	; 0x17
     c3e:	98 8d       	ldd	r25, Y+24	; 0x18
     c40:	3c 01       	movw	r6, r24
     c42:	62 0e       	add	r6, r18
     c44:	73 1e       	adc	r7, r19
     c46:	48 e0       	ldi	r20, 0x08	; 8
     c48:	50 e0       	ldi	r21, 0x00	; 0
     c4a:	b4 01       	movw	r22, r8
     c4c:	ce 01       	movw	r24, r28
     c4e:	49 96       	adiw	r24, 0x19	; 25
     c50:	66 d4       	rcall	.+2252   	; 0x151e <strncpy>
     c52:	18 a2       	std	Y+32, r1	; 0x20
     c54:	10 2f       	mov	r17, r16
     c56:	04 30       	cpi	r16, 0x04	; 4
     c58:	08 f0       	brcs	.+2      	; 0xc5c <xTaskGenericCreate+0x7e>
     c5a:	13 e0       	ldi	r17, 0x03	; 3
     c5c:	1e 8b       	std	Y+22, r17	; 0x16
     c5e:	6e 01       	movw	r12, r28
     c60:	82 e0       	ldi	r24, 0x02	; 2
     c62:	c8 0e       	add	r12, r24
     c64:	d1 1c       	adc	r13, r1
     c66:	c6 01       	movw	r24, r12
     c68:	63 da       	rcall	.-2874   	; 0x130 <vListInitialiseItem>
     c6a:	ce 01       	movw	r24, r28
     c6c:	0c 96       	adiw	r24, 0x0c	; 12
     c6e:	60 da       	rcall	.-2880   	; 0x130 <vListInitialiseItem>
     c70:	d9 87       	std	Y+9, r29	; 0x09
     c72:	c8 87       	std	Y+8, r28	; 0x08
     c74:	84 e0       	ldi	r24, 0x04	; 4
     c76:	90 e0       	ldi	r25, 0x00	; 0
     c78:	81 1b       	sub	r24, r17
     c7a:	91 09       	sbc	r25, r1
     c7c:	9d 87       	std	Y+13, r25	; 0x0d
     c7e:	8c 87       	std	Y+12, r24	; 0x0c
     c80:	db 8b       	std	Y+19, r29	; 0x13
     c82:	ca 8b       	std	Y+18, r28	; 0x12
     c84:	a2 01       	movw	r20, r4
     c86:	b5 01       	movw	r22, r10
     c88:	c3 01       	movw	r24, r6
     c8a:	cc d2       	rcall	.+1432   	; 0x1224 <pxPortInitialiseStack>
     c8c:	99 83       	std	Y+1, r25	; 0x01
     c8e:	88 83       	st	Y, r24
     c90:	e1 14       	cp	r14, r1
     c92:	f1 04       	cpc	r15, r1
     c94:	19 f0       	breq	.+6      	; 0xc9c <xTaskGenericCreate+0xbe>
     c96:	f7 01       	movw	r30, r14
     c98:	d1 83       	std	Z+1, r29	; 0x01
     c9a:	c0 83       	st	Z, r28
     c9c:	0f b6       	in	r0, 0x3f	; 63
     c9e:	f8 94       	cli
     ca0:	0f 92       	push	r0
     ca2:	80 91 78 08 	lds	r24, 0x0878	; 0x800878 <uxCurrentNumberOfTasks>
     ca6:	8f 5f       	subi	r24, 0xFF	; 255
     ca8:	80 93 78 08 	sts	0x0878, r24	; 0x800878 <uxCurrentNumberOfTasks>
     cac:	80 91 c6 08 	lds	r24, 0x08C6	; 0x8008c6 <pxCurrentTCB>
     cb0:	90 91 c7 08 	lds	r25, 0x08C7	; 0x8008c7 <pxCurrentTCB+0x1>
     cb4:	89 2b       	or	r24, r25
     cb6:	69 f5       	brne	.+90     	; 0xd12 <xTaskGenericCreate+0x134>
     cb8:	d0 93 c7 08 	sts	0x08C7, r29	; 0x8008c7 <pxCurrentTCB+0x1>
     cbc:	c0 93 c6 08 	sts	0x08C6, r28	; 0x8008c6 <pxCurrentTCB>
     cc0:	80 91 78 08 	lds	r24, 0x0878	; 0x800878 <uxCurrentNumberOfTasks>
     cc4:	81 30       	cpi	r24, 0x01	; 1
     cc6:	a1 f5       	brne	.+104    	; 0xd30 <xTaskGenericCreate+0x152>
     cc8:	82 ea       	ldi	r24, 0xA2	; 162
     cca:	98 e0       	ldi	r25, 0x08	; 8
     ccc:	23 da       	rcall	.-3002   	; 0x114 <vListInitialise>
     cce:	8b ea       	ldi	r24, 0xAB	; 171
     cd0:	98 e0       	ldi	r25, 0x08	; 8
     cd2:	20 da       	rcall	.-3008   	; 0x114 <vListInitialise>
     cd4:	84 eb       	ldi	r24, 0xB4	; 180
     cd6:	98 e0       	ldi	r25, 0x08	; 8
     cd8:	1d da       	rcall	.-3014   	; 0x114 <vListInitialise>
     cda:	8d eb       	ldi	r24, 0xBD	; 189
     cdc:	98 e0       	ldi	r25, 0x08	; 8
     cde:	1a da       	rcall	.-3020   	; 0x114 <vListInitialise>
     ce0:	89 e9       	ldi	r24, 0x99	; 153
     ce2:	98 e0       	ldi	r25, 0x08	; 8
     ce4:	17 da       	rcall	.-3026   	; 0x114 <vListInitialise>
     ce6:	80 e9       	ldi	r24, 0x90	; 144
     ce8:	98 e0       	ldi	r25, 0x08	; 8
     cea:	14 da       	rcall	.-3032   	; 0x114 <vListInitialise>
     cec:	83 e8       	ldi	r24, 0x83	; 131
     cee:	98 e0       	ldi	r25, 0x08	; 8
     cf0:	11 da       	rcall	.-3038   	; 0x114 <vListInitialise>
     cf2:	8a e7       	ldi	r24, 0x7A	; 122
     cf4:	98 e0       	ldi	r25, 0x08	; 8
     cf6:	0e da       	rcall	.-3044   	; 0x114 <vListInitialise>
     cf8:	89 e9       	ldi	r24, 0x99	; 153
     cfa:	98 e0       	ldi	r25, 0x08	; 8
     cfc:	90 93 8f 08 	sts	0x088F, r25	; 0x80088f <pxDelayedTaskList+0x1>
     d00:	80 93 8e 08 	sts	0x088E, r24	; 0x80088e <pxDelayedTaskList>
     d04:	80 e9       	ldi	r24, 0x90	; 144
     d06:	98 e0       	ldi	r25, 0x08	; 8
     d08:	90 93 8d 08 	sts	0x088D, r25	; 0x80088d <pxOverflowDelayedTaskList+0x1>
     d0c:	80 93 8c 08 	sts	0x088C, r24	; 0x80088c <pxOverflowDelayedTaskList>
     d10:	0f c0       	rjmp	.+30     	; 0xd30 <xTaskGenericCreate+0x152>
     d12:	80 91 73 08 	lds	r24, 0x0873	; 0x800873 <xSchedulerRunning>
     d16:	81 11       	cpse	r24, r1
     d18:	0b c0       	rjmp	.+22     	; 0xd30 <xTaskGenericCreate+0x152>
     d1a:	e0 91 c6 08 	lds	r30, 0x08C6	; 0x8008c6 <pxCurrentTCB>
     d1e:	f0 91 c7 08 	lds	r31, 0x08C7	; 0x8008c7 <pxCurrentTCB+0x1>
     d22:	86 89       	ldd	r24, Z+22	; 0x16
     d24:	08 17       	cp	r16, r24
     d26:	20 f0       	brcs	.+8      	; 0xd30 <xTaskGenericCreate+0x152>
     d28:	d0 93 c7 08 	sts	0x08C7, r29	; 0x8008c7 <pxCurrentTCB+0x1>
     d2c:	c0 93 c6 08 	sts	0x08C6, r28	; 0x8008c6 <pxCurrentTCB>
     d30:	8e 89       	ldd	r24, Y+22	; 0x16
     d32:	90 91 75 08 	lds	r25, 0x0875	; 0x800875 <uxTopUsedPriority>
     d36:	98 17       	cp	r25, r24
     d38:	10 f4       	brcc	.+4      	; 0xd3e <xTaskGenericCreate+0x160>
     d3a:	80 93 75 08 	sts	0x0875, r24	; 0x800875 <uxTopUsedPriority>
     d3e:	90 91 6e 08 	lds	r25, 0x086E	; 0x80086e <uxTaskNumber>
     d42:	9f 5f       	subi	r25, 0xFF	; 255
     d44:	90 93 6e 08 	sts	0x086E, r25	; 0x80086e <uxTaskNumber>
     d48:	90 91 74 08 	lds	r25, 0x0874	; 0x800874 <uxTopReadyPriority>
     d4c:	98 17       	cp	r25, r24
     d4e:	10 f4       	brcc	.+4      	; 0xd54 <xTaskGenericCreate+0x176>
     d50:	80 93 74 08 	sts	0x0874, r24	; 0x800874 <uxTopReadyPriority>
     d54:	90 e0       	ldi	r25, 0x00	; 0
     d56:	9c 01       	movw	r18, r24
     d58:	22 0f       	add	r18, r18
     d5a:	33 1f       	adc	r19, r19
     d5c:	22 0f       	add	r18, r18
     d5e:	33 1f       	adc	r19, r19
     d60:	22 0f       	add	r18, r18
     d62:	33 1f       	adc	r19, r19
     d64:	82 0f       	add	r24, r18
     d66:	93 1f       	adc	r25, r19
     d68:	b6 01       	movw	r22, r12
     d6a:	8e 55       	subi	r24, 0x5E	; 94
     d6c:	97 4f       	sbci	r25, 0xF7	; 247
     d6e:	e4 d9       	rcall	.-3128   	; 0x138 <vListInsertEnd>
     d70:	0f 90       	pop	r0
     d72:	0f be       	out	0x3f, r0	; 63
     d74:	80 91 73 08 	lds	r24, 0x0873	; 0x800873 <xSchedulerRunning>
     d78:	88 23       	and	r24, r24
     d7a:	51 f0       	breq	.+20     	; 0xd90 <xTaskGenericCreate+0x1b2>
     d7c:	e0 91 c6 08 	lds	r30, 0x08C6	; 0x8008c6 <pxCurrentTCB>
     d80:	f0 91 c7 08 	lds	r31, 0x08C7	; 0x8008c7 <pxCurrentTCB+0x1>
     d84:	86 89       	ldd	r24, Z+22	; 0x16
     d86:	80 17       	cp	r24, r16
     d88:	28 f4       	brcc	.+10     	; 0xd94 <xTaskGenericCreate+0x1b6>
     d8a:	f2 d2       	rcall	.+1508   	; 0x1370 <vPortYield>
     d8c:	81 e0       	ldi	r24, 0x01	; 1
     d8e:	09 c0       	rjmp	.+18     	; 0xda2 <xTaskGenericCreate+0x1c4>
     d90:	81 e0       	ldi	r24, 0x01	; 1
     d92:	07 c0       	rjmp	.+14     	; 0xda2 <xTaskGenericCreate+0x1c4>
     d94:	81 e0       	ldi	r24, 0x01	; 1
     d96:	05 c0       	rjmp	.+10     	; 0xda2 <xTaskGenericCreate+0x1c4>
     d98:	d8 8e       	std	Y+24, r13	; 0x18
     d9a:	cf 8a       	std	Y+23, r12	; 0x17
     d9c:	c6 01       	movw	r24, r12
     d9e:	47 cf       	rjmp	.-370    	; 0xc2e <xTaskGenericCreate+0x50>
     da0:	8f ef       	ldi	r24, 0xFF	; 255
     da2:	df 91       	pop	r29
     da4:	cf 91       	pop	r28
     da6:	1f 91       	pop	r17
     da8:	0f 91       	pop	r16
     daa:	ff 90       	pop	r15
     dac:	ef 90       	pop	r14
     dae:	df 90       	pop	r13
     db0:	cf 90       	pop	r12
     db2:	bf 90       	pop	r11
     db4:	af 90       	pop	r10
     db6:	9f 90       	pop	r9
     db8:	8f 90       	pop	r8
     dba:	7f 90       	pop	r7
     dbc:	6f 90       	pop	r6
     dbe:	5f 90       	pop	r5
     dc0:	4f 90       	pop	r4
     dc2:	08 95       	ret

00000dc4 <vTaskStartScheduler>:
     dc4:	af 92       	push	r10
     dc6:	bf 92       	push	r11
     dc8:	cf 92       	push	r12
     dca:	df 92       	push	r13
     dcc:	ef 92       	push	r14
     dce:	ff 92       	push	r15
     dd0:	0f 93       	push	r16
     dd2:	a1 2c       	mov	r10, r1
     dd4:	b1 2c       	mov	r11, r1
     dd6:	c1 2c       	mov	r12, r1
     dd8:	d1 2c       	mov	r13, r1
     dda:	e1 2c       	mov	r14, r1
     ddc:	f1 2c       	mov	r15, r1
     dde:	00 e0       	ldi	r16, 0x00	; 0
     de0:	20 e0       	ldi	r18, 0x00	; 0
     de2:	30 e0       	ldi	r19, 0x00	; 0
     de4:	45 e5       	ldi	r20, 0x55	; 85
     de6:	50 e0       	ldi	r21, 0x00	; 0
     de8:	6e e7       	ldi	r22, 0x7E	; 126
     dea:	72 e0       	ldi	r23, 0x02	; 2
     dec:	8e e6       	ldi	r24, 0x6E	; 110
     dee:	98 e0       	ldi	r25, 0x08	; 8
     df0:	f6 de       	rcall	.-532    	; 0xbde <xTaskGenericCreate>
     df2:	81 30       	cpi	r24, 0x01	; 1
     df4:	41 f4       	brne	.+16     	; 0xe06 <vTaskStartScheduler+0x42>
     df6:	f8 94       	cli
     df8:	80 93 73 08 	sts	0x0873, r24	; 0x800873 <xSchedulerRunning>
     dfc:	10 92 77 08 	sts	0x0877, r1	; 0x800877 <xTickCount+0x1>
     e00:	10 92 76 08 	sts	0x0876, r1	; 0x800876 <xTickCount>
     e04:	7b d2       	rcall	.+1270   	; 0x12fc <xPortStartScheduler>
     e06:	0f 91       	pop	r16
     e08:	ff 90       	pop	r15
     e0a:	ef 90       	pop	r14
     e0c:	df 90       	pop	r13
     e0e:	cf 90       	pop	r12
     e10:	bf 90       	pop	r11
     e12:	af 90       	pop	r10
     e14:	08 95       	ret

00000e16 <vTaskSuspendAll>:
     e16:	80 91 72 08 	lds	r24, 0x0872	; 0x800872 <uxSchedulerSuspended>
     e1a:	8f 5f       	subi	r24, 0xFF	; 255
     e1c:	80 93 72 08 	sts	0x0872, r24	; 0x800872 <uxSchedulerSuspended>
     e20:	08 95       	ret

00000e22 <vTaskIncrementTick>:
     e22:	0f 93       	push	r16
     e24:	1f 93       	push	r17
     e26:	cf 93       	push	r28
     e28:	df 93       	push	r29
     e2a:	80 91 72 08 	lds	r24, 0x0872	; 0x800872 <uxSchedulerSuspended>
     e2e:	81 11       	cpse	r24, r1
     e30:	af c0       	rjmp	.+350    	; 0xf90 <vTaskIncrementTick+0x16e>
     e32:	80 91 76 08 	lds	r24, 0x0876	; 0x800876 <xTickCount>
     e36:	90 91 77 08 	lds	r25, 0x0877	; 0x800877 <xTickCount+0x1>
     e3a:	01 96       	adiw	r24, 0x01	; 1
     e3c:	90 93 77 08 	sts	0x0877, r25	; 0x800877 <xTickCount+0x1>
     e40:	80 93 76 08 	sts	0x0876, r24	; 0x800876 <xTickCount>
     e44:	80 91 76 08 	lds	r24, 0x0876	; 0x800876 <xTickCount>
     e48:	90 91 77 08 	lds	r25, 0x0877	; 0x800877 <xTickCount+0x1>
     e4c:	89 2b       	or	r24, r25
     e4e:	99 f5       	brne	.+102    	; 0xeb6 <vTaskIncrementTick+0x94>
     e50:	80 91 8e 08 	lds	r24, 0x088E	; 0x80088e <pxDelayedTaskList>
     e54:	90 91 8f 08 	lds	r25, 0x088F	; 0x80088f <pxDelayedTaskList+0x1>
     e58:	20 91 8c 08 	lds	r18, 0x088C	; 0x80088c <pxOverflowDelayedTaskList>
     e5c:	30 91 8d 08 	lds	r19, 0x088D	; 0x80088d <pxOverflowDelayedTaskList+0x1>
     e60:	30 93 8f 08 	sts	0x088F, r19	; 0x80088f <pxDelayedTaskList+0x1>
     e64:	20 93 8e 08 	sts	0x088E, r18	; 0x80088e <pxDelayedTaskList>
     e68:	90 93 8d 08 	sts	0x088D, r25	; 0x80088d <pxOverflowDelayedTaskList+0x1>
     e6c:	80 93 8c 08 	sts	0x088C, r24	; 0x80088c <pxOverflowDelayedTaskList>
     e70:	80 91 6f 08 	lds	r24, 0x086F	; 0x80086f <xNumOfOverflows>
     e74:	8f 5f       	subi	r24, 0xFF	; 255
     e76:	80 93 6f 08 	sts	0x086F, r24	; 0x80086f <xNumOfOverflows>
     e7a:	e0 91 8e 08 	lds	r30, 0x088E	; 0x80088e <pxDelayedTaskList>
     e7e:	f0 91 8f 08 	lds	r31, 0x088F	; 0x80088f <pxDelayedTaskList+0x1>
     e82:	80 81       	ld	r24, Z
     e84:	81 11       	cpse	r24, r1
     e86:	07 c0       	rjmp	.+14     	; 0xe96 <vTaskIncrementTick+0x74>
     e88:	8f ef       	ldi	r24, 0xFF	; 255
     e8a:	9f ef       	ldi	r25, 0xFF	; 255
     e8c:	90 93 01 01 	sts	0x0101, r25	; 0x800101 <__data_start+0x1>
     e90:	80 93 00 01 	sts	0x0100, r24	; 0x800100 <__data_start>
     e94:	10 c0       	rjmp	.+32     	; 0xeb6 <vTaskIncrementTick+0x94>
     e96:	e0 91 8e 08 	lds	r30, 0x088E	; 0x80088e <pxDelayedTaskList>
     e9a:	f0 91 8f 08 	lds	r31, 0x088F	; 0x80088f <pxDelayedTaskList+0x1>
     e9e:	05 80       	ldd	r0, Z+5	; 0x05
     ea0:	f6 81       	ldd	r31, Z+6	; 0x06
     ea2:	e0 2d       	mov	r30, r0
     ea4:	06 80       	ldd	r0, Z+6	; 0x06
     ea6:	f7 81       	ldd	r31, Z+7	; 0x07
     ea8:	e0 2d       	mov	r30, r0
     eaa:	82 81       	ldd	r24, Z+2	; 0x02
     eac:	93 81       	ldd	r25, Z+3	; 0x03
     eae:	90 93 01 01 	sts	0x0101, r25	; 0x800101 <__data_start+0x1>
     eb2:	80 93 00 01 	sts	0x0100, r24	; 0x800100 <__data_start>
     eb6:	20 91 76 08 	lds	r18, 0x0876	; 0x800876 <xTickCount>
     eba:	30 91 77 08 	lds	r19, 0x0877	; 0x800877 <xTickCount+0x1>
     ebe:	80 91 00 01 	lds	r24, 0x0100	; 0x800100 <__data_start>
     ec2:	90 91 01 01 	lds	r25, 0x0101	; 0x800101 <__data_start+0x1>
     ec6:	28 17       	cp	r18, r24
     ec8:	39 07       	cpc	r19, r25
     eca:	08 f4       	brcc	.+2      	; 0xece <vTaskIncrementTick+0xac>
     ecc:	66 c0       	rjmp	.+204    	; 0xf9a <vTaskIncrementTick+0x178>
     ece:	e0 91 8e 08 	lds	r30, 0x088E	; 0x80088e <pxDelayedTaskList>
     ed2:	f0 91 8f 08 	lds	r31, 0x088F	; 0x80088f <pxDelayedTaskList+0x1>
     ed6:	80 81       	ld	r24, Z
     ed8:	88 23       	and	r24, r24
     eda:	99 f0       	breq	.+38     	; 0xf02 <vTaskIncrementTick+0xe0>
     edc:	e0 91 8e 08 	lds	r30, 0x088E	; 0x80088e <pxDelayedTaskList>
     ee0:	f0 91 8f 08 	lds	r31, 0x088F	; 0x80088f <pxDelayedTaskList+0x1>
     ee4:	05 80       	ldd	r0, Z+5	; 0x05
     ee6:	f6 81       	ldd	r31, Z+6	; 0x06
     ee8:	e0 2d       	mov	r30, r0
     eea:	c6 81       	ldd	r28, Z+6	; 0x06
     eec:	d7 81       	ldd	r29, Z+7	; 0x07
     eee:	8a 81       	ldd	r24, Y+2	; 0x02
     ef0:	9b 81       	ldd	r25, Y+3	; 0x03
     ef2:	20 91 76 08 	lds	r18, 0x0876	; 0x800876 <xTickCount>
     ef6:	30 91 77 08 	lds	r19, 0x0877	; 0x800877 <xTickCount+0x1>
     efa:	28 17       	cp	r18, r24
     efc:	39 07       	cpc	r19, r25
     efe:	f8 f4       	brcc	.+62     	; 0xf3e <vTaskIncrementTick+0x11c>
     f00:	19 c0       	rjmp	.+50     	; 0xf34 <vTaskIncrementTick+0x112>
     f02:	8f ef       	ldi	r24, 0xFF	; 255
     f04:	9f ef       	ldi	r25, 0xFF	; 255
     f06:	90 93 01 01 	sts	0x0101, r25	; 0x800101 <__data_start+0x1>
     f0a:	80 93 00 01 	sts	0x0100, r24	; 0x800100 <__data_start>
     f0e:	45 c0       	rjmp	.+138    	; 0xf9a <vTaskIncrementTick+0x178>
     f10:	e0 91 8e 08 	lds	r30, 0x088E	; 0x80088e <pxDelayedTaskList>
     f14:	f0 91 8f 08 	lds	r31, 0x088F	; 0x80088f <pxDelayedTaskList+0x1>
     f18:	05 80       	ldd	r0, Z+5	; 0x05
     f1a:	f6 81       	ldd	r31, Z+6	; 0x06
     f1c:	e0 2d       	mov	r30, r0
     f1e:	c6 81       	ldd	r28, Z+6	; 0x06
     f20:	d7 81       	ldd	r29, Z+7	; 0x07
     f22:	8a 81       	ldd	r24, Y+2	; 0x02
     f24:	9b 81       	ldd	r25, Y+3	; 0x03
     f26:	20 91 76 08 	lds	r18, 0x0876	; 0x800876 <xTickCount>
     f2a:	30 91 77 08 	lds	r19, 0x0877	; 0x800877 <xTickCount+0x1>
     f2e:	28 17       	cp	r18, r24
     f30:	39 07       	cpc	r19, r25
     f32:	28 f4       	brcc	.+10     	; 0xf3e <vTaskIncrementTick+0x11c>
     f34:	90 93 01 01 	sts	0x0101, r25	; 0x800101 <__data_start+0x1>
     f38:	80 93 00 01 	sts	0x0100, r24	; 0x800100 <__data_start>
     f3c:	2e c0       	rjmp	.+92     	; 0xf9a <vTaskIncrementTick+0x178>
     f3e:	8e 01       	movw	r16, r28
     f40:	0e 5f       	subi	r16, 0xFE	; 254
     f42:	1f 4f       	sbci	r17, 0xFF	; 255
     f44:	c8 01       	movw	r24, r16
     f46:	5a d9       	rcall	.-3404   	; 0x1fc <vListRemove>
     f48:	8c 89       	ldd	r24, Y+20	; 0x14
     f4a:	9d 89       	ldd	r25, Y+21	; 0x15
     f4c:	89 2b       	or	r24, r25
     f4e:	19 f0       	breq	.+6      	; 0xf56 <vTaskIncrementTick+0x134>
     f50:	ce 01       	movw	r24, r28
     f52:	0c 96       	adiw	r24, 0x0c	; 12
     f54:	53 d9       	rcall	.-3418   	; 0x1fc <vListRemove>
     f56:	2e 89       	ldd	r18, Y+22	; 0x16
     f58:	80 91 74 08 	lds	r24, 0x0874	; 0x800874 <uxTopReadyPriority>
     f5c:	82 17       	cp	r24, r18
     f5e:	10 f4       	brcc	.+4      	; 0xf64 <vTaskIncrementTick+0x142>
     f60:	20 93 74 08 	sts	0x0874, r18	; 0x800874 <uxTopReadyPriority>
     f64:	30 e0       	ldi	r19, 0x00	; 0
     f66:	c9 01       	movw	r24, r18
     f68:	88 0f       	add	r24, r24
     f6a:	99 1f       	adc	r25, r25
     f6c:	88 0f       	add	r24, r24
     f6e:	99 1f       	adc	r25, r25
     f70:	88 0f       	add	r24, r24
     f72:	99 1f       	adc	r25, r25
     f74:	82 0f       	add	r24, r18
     f76:	93 1f       	adc	r25, r19
     f78:	b8 01       	movw	r22, r16
     f7a:	8e 55       	subi	r24, 0x5E	; 94
     f7c:	97 4f       	sbci	r25, 0xF7	; 247
     f7e:	dc d8       	rcall	.-3656   	; 0x138 <vListInsertEnd>
     f80:	e0 91 8e 08 	lds	r30, 0x088E	; 0x80088e <pxDelayedTaskList>
     f84:	f0 91 8f 08 	lds	r31, 0x088F	; 0x80088f <pxDelayedTaskList+0x1>
     f88:	80 81       	ld	r24, Z
     f8a:	81 11       	cpse	r24, r1
     f8c:	c1 cf       	rjmp	.-126    	; 0xf10 <vTaskIncrementTick+0xee>
     f8e:	b9 cf       	rjmp	.-142    	; 0xf02 <vTaskIncrementTick+0xe0>
     f90:	80 91 71 08 	lds	r24, 0x0871	; 0x800871 <uxMissedTicks>
     f94:	8f 5f       	subi	r24, 0xFF	; 255
     f96:	80 93 71 08 	sts	0x0871, r24	; 0x800871 <uxMissedTicks>
     f9a:	df 91       	pop	r29
     f9c:	cf 91       	pop	r28
     f9e:	1f 91       	pop	r17
     fa0:	0f 91       	pop	r16
     fa2:	08 95       	ret

00000fa4 <xTaskResumeAll>:
     fa4:	cf 92       	push	r12
     fa6:	df 92       	push	r13
     fa8:	ef 92       	push	r14
     faa:	ff 92       	push	r15
     fac:	0f 93       	push	r16
     fae:	1f 93       	push	r17
     fb0:	cf 93       	push	r28
     fb2:	df 93       	push	r29
     fb4:	0f b6       	in	r0, 0x3f	; 63
     fb6:	f8 94       	cli
     fb8:	0f 92       	push	r0
     fba:	80 91 72 08 	lds	r24, 0x0872	; 0x800872 <uxSchedulerSuspended>
     fbe:	81 50       	subi	r24, 0x01	; 1
     fc0:	80 93 72 08 	sts	0x0872, r24	; 0x800872 <uxSchedulerSuspended>
     fc4:	80 91 72 08 	lds	r24, 0x0872	; 0x800872 <uxSchedulerSuspended>
     fc8:	81 11       	cpse	r24, r1
     fca:	5f c0       	rjmp	.+190    	; 0x108a <xTaskResumeAll+0xe6>
     fcc:	80 91 78 08 	lds	r24, 0x0878	; 0x800878 <uxCurrentNumberOfTasks>
     fd0:	81 11       	cpse	r24, r1
     fd2:	2f c0       	rjmp	.+94     	; 0x1032 <xTaskResumeAll+0x8e>
     fd4:	5d c0       	rjmp	.+186    	; 0x1090 <xTaskResumeAll+0xec>
     fd6:	d7 01       	movw	r26, r14
     fd8:	15 96       	adiw	r26, 0x05	; 5
     fda:	ed 91       	ld	r30, X+
     fdc:	fc 91       	ld	r31, X
     fde:	16 97       	sbiw	r26, 0x06	; 6
     fe0:	c6 81       	ldd	r28, Z+6	; 0x06
     fe2:	d7 81       	ldd	r29, Z+7	; 0x07
     fe4:	ce 01       	movw	r24, r28
     fe6:	0c 96       	adiw	r24, 0x0c	; 12
     fe8:	09 d9       	rcall	.-3566   	; 0x1fc <vListRemove>
     fea:	8e 01       	movw	r16, r28
     fec:	0e 5f       	subi	r16, 0xFE	; 254
     fee:	1f 4f       	sbci	r17, 0xFF	; 255
     ff0:	c8 01       	movw	r24, r16
     ff2:	04 d9       	rcall	.-3576   	; 0x1fc <vListRemove>
     ff4:	2e 89       	ldd	r18, Y+22	; 0x16
     ff6:	80 91 74 08 	lds	r24, 0x0874	; 0x800874 <uxTopReadyPriority>
     ffa:	82 17       	cp	r24, r18
     ffc:	10 f4       	brcc	.+4      	; 0x1002 <xTaskResumeAll+0x5e>
     ffe:	20 93 74 08 	sts	0x0874, r18	; 0x800874 <uxTopReadyPriority>
    1002:	30 e0       	ldi	r19, 0x00	; 0
    1004:	c9 01       	movw	r24, r18
    1006:	88 0f       	add	r24, r24
    1008:	99 1f       	adc	r25, r25
    100a:	88 0f       	add	r24, r24
    100c:	99 1f       	adc	r25, r25
    100e:	88 0f       	add	r24, r24
    1010:	99 1f       	adc	r25, r25
    1012:	82 0f       	add	r24, r18
    1014:	93 1f       	adc	r25, r19
    1016:	b8 01       	movw	r22, r16
    1018:	8e 55       	subi	r24, 0x5E	; 94
    101a:	97 4f       	sbci	r25, 0xF7	; 247
    101c:	8d d8       	rcall	.-3814   	; 0x138 <vListInsertEnd>
    101e:	e0 91 c6 08 	lds	r30, 0x08C6	; 0x8008c6 <pxCurrentTCB>
    1022:	f0 91 c7 08 	lds	r31, 0x08C7	; 0x8008c7 <pxCurrentTCB+0x1>
    1026:	9e 89       	ldd	r25, Y+22	; 0x16
    1028:	86 89       	ldd	r24, Z+22	; 0x16
    102a:	98 17       	cp	r25, r24
    102c:	58 f0       	brcs	.+22     	; 0x1044 <xTaskResumeAll+0xa0>
    102e:	dc 2c       	mov	r13, r12
    1030:	09 c0       	rjmp	.+18     	; 0x1044 <xTaskResumeAll+0xa0>
    1032:	d1 2c       	mov	r13, r1
    1034:	0f 2e       	mov	r0, r31
    1036:	f3 e8       	ldi	r31, 0x83	; 131
    1038:	ef 2e       	mov	r14, r31
    103a:	f8 e0       	ldi	r31, 0x08	; 8
    103c:	ff 2e       	mov	r15, r31
    103e:	f0 2d       	mov	r31, r0
    1040:	cc 24       	eor	r12, r12
    1042:	c3 94       	inc	r12
    1044:	f7 01       	movw	r30, r14
    1046:	80 81       	ld	r24, Z
    1048:	81 11       	cpse	r24, r1
    104a:	c5 cf       	rjmp	.-118    	; 0xfd6 <xTaskResumeAll+0x32>
    104c:	80 91 71 08 	lds	r24, 0x0871	; 0x800871 <uxMissedTicks>
    1050:	88 23       	and	r24, r24
    1052:	79 f0       	breq	.+30     	; 0x1072 <xTaskResumeAll+0xce>
    1054:	80 91 71 08 	lds	r24, 0x0871	; 0x800871 <uxMissedTicks>
    1058:	88 23       	and	r24, r24
    105a:	91 f0       	breq	.+36     	; 0x1080 <xTaskResumeAll+0xdc>
    105c:	e2 de       	rcall	.-572    	; 0xe22 <vTaskIncrementTick>
    105e:	80 91 71 08 	lds	r24, 0x0871	; 0x800871 <uxMissedTicks>
    1062:	81 50       	subi	r24, 0x01	; 1
    1064:	80 93 71 08 	sts	0x0871, r24	; 0x800871 <uxMissedTicks>
    1068:	80 91 71 08 	lds	r24, 0x0871	; 0x800871 <uxMissedTicks>
    106c:	81 11       	cpse	r24, r1
    106e:	f6 cf       	rjmp	.-20     	; 0x105c <xTaskResumeAll+0xb8>
    1070:	07 c0       	rjmp	.+14     	; 0x1080 <xTaskResumeAll+0xdc>
    1072:	f1 e0       	ldi	r31, 0x01	; 1
    1074:	df 16       	cp	r13, r31
    1076:	21 f0       	breq	.+8      	; 0x1080 <xTaskResumeAll+0xdc>
    1078:	80 91 70 08 	lds	r24, 0x0870	; 0x800870 <xMissedYield>
    107c:	81 30       	cpi	r24, 0x01	; 1
    107e:	39 f4       	brne	.+14     	; 0x108e <xTaskResumeAll+0xea>
    1080:	10 92 70 08 	sts	0x0870, r1	; 0x800870 <xMissedYield>
    1084:	75 d1       	rcall	.+746    	; 0x1370 <vPortYield>
    1086:	81 e0       	ldi	r24, 0x01	; 1
    1088:	03 c0       	rjmp	.+6      	; 0x1090 <xTaskResumeAll+0xec>
    108a:	80 e0       	ldi	r24, 0x00	; 0
    108c:	01 c0       	rjmp	.+2      	; 0x1090 <xTaskResumeAll+0xec>
    108e:	80 e0       	ldi	r24, 0x00	; 0
    1090:	0f 90       	pop	r0
    1092:	0f be       	out	0x3f, r0	; 63
    1094:	df 91       	pop	r29
    1096:	cf 91       	pop	r28
    1098:	1f 91       	pop	r17
    109a:	0f 91       	pop	r16
    109c:	ff 90       	pop	r15
    109e:	ef 90       	pop	r14
    10a0:	df 90       	pop	r13
    10a2:	cf 90       	pop	r12
    10a4:	08 95       	ret

000010a6 <vTaskDelay>:
    10a6:	cf 93       	push	r28
    10a8:	df 93       	push	r29
    10aa:	ec 01       	movw	r28, r24
    10ac:	89 2b       	or	r24, r25
    10ae:	91 f0       	breq	.+36     	; 0x10d4 <vTaskDelay+0x2e>
    10b0:	b2 de       	rcall	.-668    	; 0xe16 <vTaskSuspendAll>
    10b2:	80 91 76 08 	lds	r24, 0x0876	; 0x800876 <xTickCount>
    10b6:	90 91 77 08 	lds	r25, 0x0877	; 0x800877 <xTickCount+0x1>
    10ba:	c8 0f       	add	r28, r24
    10bc:	d9 1f       	adc	r29, r25
    10be:	80 91 c6 08 	lds	r24, 0x08C6	; 0x8008c6 <pxCurrentTCB>
    10c2:	90 91 c7 08 	lds	r25, 0x08C7	; 0x8008c7 <pxCurrentTCB+0x1>
    10c6:	02 96       	adiw	r24, 0x02	; 2
    10c8:	99 d8       	rcall	.-3790   	; 0x1fc <vListRemove>
    10ca:	ce 01       	movw	r24, r28
    10cc:	53 dd       	rcall	.-1370   	; 0xb74 <prvAddCurrentTaskToDelayedList>
    10ce:	6a df       	rcall	.-300    	; 0xfa4 <xTaskResumeAll>
    10d0:	81 11       	cpse	r24, r1
    10d2:	01 c0       	rjmp	.+2      	; 0x10d6 <vTaskDelay+0x30>
    10d4:	4d d1       	rcall	.+666    	; 0x1370 <vPortYield>
    10d6:	df 91       	pop	r29
    10d8:	cf 91       	pop	r28
    10da:	08 95       	ret

000010dc <prvIdleTask>:
    10dc:	0f 2e       	mov	r0, r31
    10de:	fa e7       	ldi	r31, 0x7A	; 122
    10e0:	ef 2e       	mov	r14, r31
    10e2:	f8 e0       	ldi	r31, 0x08	; 8
    10e4:	ff 2e       	mov	r15, r31
    10e6:	f0 2d       	mov	r31, r0
    10e8:	c2 ea       	ldi	r28, 0xA2	; 162
    10ea:	d8 e0       	ldi	r29, 0x08	; 8
    10ec:	80 91 79 08 	lds	r24, 0x0879	; 0x800879 <uxTasksDeleted>
    10f0:	88 23       	and	r24, r24
    10f2:	39 f1       	breq	.+78     	; 0x1142 <prvIdleTask+0x66>
    10f4:	90 de       	rcall	.-736    	; 0xe16 <vTaskSuspendAll>
    10f6:	d7 01       	movw	r26, r14
    10f8:	1c 91       	ld	r17, X
    10fa:	54 df       	rcall	.-344    	; 0xfa4 <xTaskResumeAll>
    10fc:	11 23       	and	r17, r17
    10fe:	09 f1       	breq	.+66     	; 0x1142 <prvIdleTask+0x66>
    1100:	0f b6       	in	r0, 0x3f	; 63
    1102:	f8 94       	cli
    1104:	0f 92       	push	r0
    1106:	d7 01       	movw	r26, r14
    1108:	15 96       	adiw	r26, 0x05	; 5
    110a:	ed 91       	ld	r30, X+
    110c:	fc 91       	ld	r31, X
    110e:	16 97       	sbiw	r26, 0x06	; 6
    1110:	06 81       	ldd	r16, Z+6	; 0x06
    1112:	17 81       	ldd	r17, Z+7	; 0x07
    1114:	c8 01       	movw	r24, r16
    1116:	02 96       	adiw	r24, 0x02	; 2
    1118:	71 d8       	rcall	.-3870   	; 0x1fc <vListRemove>
    111a:	80 91 78 08 	lds	r24, 0x0878	; 0x800878 <uxCurrentNumberOfTasks>
    111e:	81 50       	subi	r24, 0x01	; 1
    1120:	80 93 78 08 	sts	0x0878, r24	; 0x800878 <uxCurrentNumberOfTasks>
    1124:	80 91 79 08 	lds	r24, 0x0879	; 0x800879 <uxTasksDeleted>
    1128:	81 50       	subi	r24, 0x01	; 1
    112a:	80 93 79 08 	sts	0x0879, r24	; 0x800879 <uxTasksDeleted>
    112e:	0f 90       	pop	r0
    1130:	0f be       	out	0x3f, r0	; 63
    1132:	f8 01       	movw	r30, r16
    1134:	87 89       	ldd	r24, Z+23	; 0x17
    1136:	90 8d       	ldd	r25, Z+24	; 0x18
    1138:	0e 94 89 00 	call	0x112	; 0x112 <vPortFree>
    113c:	c8 01       	movw	r24, r16
    113e:	0e 94 89 00 	call	0x112	; 0x112 <vPortFree>
    1142:	88 81       	ld	r24, Y
    1144:	82 30       	cpi	r24, 0x02	; 2
    1146:	90 f2       	brcs	.-92     	; 0x10ec <prvIdleTask+0x10>
    1148:	13 d1       	rcall	.+550    	; 0x1370 <vPortYield>
    114a:	d0 cf       	rjmp	.-96     	; 0x10ec <prvIdleTask+0x10>

0000114c <vTaskSwitchContext>:
    114c:	80 91 72 08 	lds	r24, 0x0872	; 0x800872 <uxSchedulerSuspended>
    1150:	81 11       	cpse	r24, r1
    1152:	13 c0       	rjmp	.+38     	; 0x117a <vTaskSwitchContext+0x2e>
    1154:	80 91 74 08 	lds	r24, 0x0874	; 0x800874 <uxTopReadyPriority>
    1158:	90 e0       	ldi	r25, 0x00	; 0
    115a:	fc 01       	movw	r30, r24
    115c:	ee 0f       	add	r30, r30
    115e:	ff 1f       	adc	r31, r31
    1160:	ee 0f       	add	r30, r30
    1162:	ff 1f       	adc	r31, r31
    1164:	ee 0f       	add	r30, r30
    1166:	ff 1f       	adc	r31, r31
    1168:	8e 0f       	add	r24, r30
    116a:	9f 1f       	adc	r25, r31
    116c:	fc 01       	movw	r30, r24
    116e:	ee 55       	subi	r30, 0x5E	; 94
    1170:	f7 4f       	sbci	r31, 0xF7	; 247
    1172:	80 81       	ld	r24, Z
    1174:	88 23       	and	r24, r24
    1176:	29 f0       	breq	.+10     	; 0x1182 <vTaskSwitchContext+0x36>
    1178:	1b c0       	rjmp	.+54     	; 0x11b0 <vTaskSwitchContext+0x64>
    117a:	81 e0       	ldi	r24, 0x01	; 1
    117c:	80 93 70 08 	sts	0x0870, r24	; 0x800870 <xMissedYield>
    1180:	08 95       	ret
    1182:	80 91 74 08 	lds	r24, 0x0874	; 0x800874 <uxTopReadyPriority>
    1186:	81 50       	subi	r24, 0x01	; 1
    1188:	80 93 74 08 	sts	0x0874, r24	; 0x800874 <uxTopReadyPriority>
    118c:	80 91 74 08 	lds	r24, 0x0874	; 0x800874 <uxTopReadyPriority>
    1190:	90 e0       	ldi	r25, 0x00	; 0
    1192:	fc 01       	movw	r30, r24
    1194:	ee 0f       	add	r30, r30
    1196:	ff 1f       	adc	r31, r31
    1198:	ee 0f       	add	r30, r30
    119a:	ff 1f       	adc	r31, r31
    119c:	ee 0f       	add	r30, r30
    119e:	ff 1f       	adc	r31, r31
    11a0:	8e 0f       	add	r24, r30
    11a2:	9f 1f       	adc	r25, r31
    11a4:	fc 01       	movw	r30, r24
    11a6:	ee 55       	subi	r30, 0x5E	; 94
    11a8:	f7 4f       	sbci	r31, 0xF7	; 247
    11aa:	80 81       	ld	r24, Z
    11ac:	88 23       	and	r24, r24
    11ae:	49 f3       	breq	.-46     	; 0x1182 <vTaskSwitchContext+0x36>
    11b0:	80 91 74 08 	lds	r24, 0x0874	; 0x800874 <uxTopReadyPriority>
    11b4:	90 e0       	ldi	r25, 0x00	; 0
    11b6:	9c 01       	movw	r18, r24
    11b8:	22 0f       	add	r18, r18
    11ba:	33 1f       	adc	r19, r19
    11bc:	22 0f       	add	r18, r18
    11be:	33 1f       	adc	r19, r19
    11c0:	22 0f       	add	r18, r18
    11c2:	33 1f       	adc	r19, r19
    11c4:	28 0f       	add	r18, r24
    11c6:	39 1f       	adc	r19, r25
    11c8:	d9 01       	movw	r26, r18
    11ca:	ae 55       	subi	r26, 0x5E	; 94
    11cc:	b7 4f       	sbci	r27, 0xF7	; 247
    11ce:	11 96       	adiw	r26, 0x01	; 1
    11d0:	ed 91       	ld	r30, X+
    11d2:	fc 91       	ld	r31, X
    11d4:	12 97       	sbiw	r26, 0x02	; 2
    11d6:	02 80       	ldd	r0, Z+2	; 0x02
    11d8:	f3 81       	ldd	r31, Z+3	; 0x03
    11da:	e0 2d       	mov	r30, r0
    11dc:	12 96       	adiw	r26, 0x02	; 2
    11de:	fc 93       	st	X, r31
    11e0:	ee 93       	st	-X, r30
    11e2:	11 97       	sbiw	r26, 0x01	; 1
    11e4:	2b 55       	subi	r18, 0x5B	; 91
    11e6:	37 4f       	sbci	r19, 0xF7	; 247
    11e8:	e2 17       	cp	r30, r18
    11ea:	f3 07       	cpc	r31, r19
    11ec:	29 f4       	brne	.+10     	; 0x11f8 <vTaskSwitchContext+0xac>
    11ee:	22 81       	ldd	r18, Z+2	; 0x02
    11f0:	33 81       	ldd	r19, Z+3	; 0x03
    11f2:	fd 01       	movw	r30, r26
    11f4:	32 83       	std	Z+2, r19	; 0x02
    11f6:	21 83       	std	Z+1, r18	; 0x01
    11f8:	fc 01       	movw	r30, r24
    11fa:	ee 0f       	add	r30, r30
    11fc:	ff 1f       	adc	r31, r31
    11fe:	ee 0f       	add	r30, r30
    1200:	ff 1f       	adc	r31, r31
    1202:	ee 0f       	add	r30, r30
    1204:	ff 1f       	adc	r31, r31
    1206:	8e 0f       	add	r24, r30
    1208:	9f 1f       	adc	r25, r31
    120a:	fc 01       	movw	r30, r24
    120c:	ee 55       	subi	r30, 0x5E	; 94
    120e:	f7 4f       	sbci	r31, 0xF7	; 247
    1210:	01 80       	ldd	r0, Z+1	; 0x01
    1212:	f2 81       	ldd	r31, Z+2	; 0x02
    1214:	e0 2d       	mov	r30, r0
    1216:	86 81       	ldd	r24, Z+6	; 0x06
    1218:	97 81       	ldd	r25, Z+7	; 0x07
    121a:	90 93 c7 08 	sts	0x08C7, r25	; 0x8008c7 <pxCurrentTCB+0x1>
    121e:	80 93 c6 08 	sts	0x08C6, r24	; 0x8008c6 <pxCurrentTCB>
    1222:	08 95       	ret

00001224 <pxPortInitialiseStack>:
    1224:	31 e1       	ldi	r19, 0x11	; 17
    1226:	fc 01       	movw	r30, r24
    1228:	30 83       	st	Z, r19
    122a:	31 97       	sbiw	r30, 0x01	; 1
    122c:	22 e2       	ldi	r18, 0x22	; 34
    122e:	20 83       	st	Z, r18
    1230:	31 97       	sbiw	r30, 0x01	; 1
    1232:	a3 e3       	ldi	r26, 0x33	; 51
    1234:	a0 83       	st	Z, r26
    1236:	31 97       	sbiw	r30, 0x01	; 1
    1238:	60 83       	st	Z, r22
    123a:	31 97       	sbiw	r30, 0x01	; 1
    123c:	70 83       	st	Z, r23
    123e:	31 97       	sbiw	r30, 0x01	; 1
    1240:	10 82       	st	Z, r1
    1242:	31 97       	sbiw	r30, 0x01	; 1
    1244:	60 e8       	ldi	r22, 0x80	; 128
    1246:	60 83       	st	Z, r22
    1248:	31 97       	sbiw	r30, 0x01	; 1
    124a:	10 82       	st	Z, r1
    124c:	31 97       	sbiw	r30, 0x01	; 1
    124e:	62 e0       	ldi	r22, 0x02	; 2
    1250:	60 83       	st	Z, r22
    1252:	31 97       	sbiw	r30, 0x01	; 1
    1254:	63 e0       	ldi	r22, 0x03	; 3
    1256:	60 83       	st	Z, r22
    1258:	31 97       	sbiw	r30, 0x01	; 1
    125a:	64 e0       	ldi	r22, 0x04	; 4
    125c:	60 83       	st	Z, r22
    125e:	31 97       	sbiw	r30, 0x01	; 1
    1260:	65 e0       	ldi	r22, 0x05	; 5
    1262:	60 83       	st	Z, r22
    1264:	31 97       	sbiw	r30, 0x01	; 1
    1266:	66 e0       	ldi	r22, 0x06	; 6
    1268:	60 83       	st	Z, r22
    126a:	31 97       	sbiw	r30, 0x01	; 1
    126c:	67 e0       	ldi	r22, 0x07	; 7
    126e:	60 83       	st	Z, r22
    1270:	31 97       	sbiw	r30, 0x01	; 1
    1272:	68 e0       	ldi	r22, 0x08	; 8
    1274:	60 83       	st	Z, r22
    1276:	31 97       	sbiw	r30, 0x01	; 1
    1278:	69 e0       	ldi	r22, 0x09	; 9
    127a:	60 83       	st	Z, r22
    127c:	31 97       	sbiw	r30, 0x01	; 1
    127e:	60 e1       	ldi	r22, 0x10	; 16
    1280:	60 83       	st	Z, r22
    1282:	31 97       	sbiw	r30, 0x01	; 1
    1284:	30 83       	st	Z, r19
    1286:	31 97       	sbiw	r30, 0x01	; 1
    1288:	32 e1       	ldi	r19, 0x12	; 18
    128a:	30 83       	st	Z, r19
    128c:	31 97       	sbiw	r30, 0x01	; 1
    128e:	33 e1       	ldi	r19, 0x13	; 19
    1290:	30 83       	st	Z, r19
    1292:	31 97       	sbiw	r30, 0x01	; 1
    1294:	34 e1       	ldi	r19, 0x14	; 20
    1296:	30 83       	st	Z, r19
    1298:	31 97       	sbiw	r30, 0x01	; 1
    129a:	35 e1       	ldi	r19, 0x15	; 21
    129c:	30 83       	st	Z, r19
    129e:	31 97       	sbiw	r30, 0x01	; 1
    12a0:	36 e1       	ldi	r19, 0x16	; 22
    12a2:	30 83       	st	Z, r19
    12a4:	31 97       	sbiw	r30, 0x01	; 1
    12a6:	37 e1       	ldi	r19, 0x17	; 23
    12a8:	30 83       	st	Z, r19
    12aa:	31 97       	sbiw	r30, 0x01	; 1
    12ac:	38 e1       	ldi	r19, 0x18	; 24
    12ae:	30 83       	st	Z, r19
    12b0:	31 97       	sbiw	r30, 0x01	; 1
    12b2:	39 e1       	ldi	r19, 0x19	; 25
    12b4:	30 83       	st	Z, r19
    12b6:	31 97       	sbiw	r30, 0x01	; 1
    12b8:	30 e2       	ldi	r19, 0x20	; 32
    12ba:	30 83       	st	Z, r19
    12bc:	31 97       	sbiw	r30, 0x01	; 1
    12be:	31 e2       	ldi	r19, 0x21	; 33
    12c0:	30 83       	st	Z, r19
    12c2:	31 97       	sbiw	r30, 0x01	; 1
    12c4:	20 83       	st	Z, r18
    12c6:	31 97       	sbiw	r30, 0x01	; 1
    12c8:	23 e2       	ldi	r18, 0x23	; 35
    12ca:	20 83       	st	Z, r18
    12cc:	31 97       	sbiw	r30, 0x01	; 1
    12ce:	40 83       	st	Z, r20
    12d0:	31 97       	sbiw	r30, 0x01	; 1
    12d2:	50 83       	st	Z, r21
    12d4:	31 97       	sbiw	r30, 0x01	; 1
    12d6:	26 e2       	ldi	r18, 0x26	; 38
    12d8:	20 83       	st	Z, r18
    12da:	31 97       	sbiw	r30, 0x01	; 1
    12dc:	27 e2       	ldi	r18, 0x27	; 39
    12de:	20 83       	st	Z, r18
    12e0:	31 97       	sbiw	r30, 0x01	; 1
    12e2:	28 e2       	ldi	r18, 0x28	; 40
    12e4:	20 83       	st	Z, r18
    12e6:	31 97       	sbiw	r30, 0x01	; 1
    12e8:	29 e2       	ldi	r18, 0x29	; 41
    12ea:	20 83       	st	Z, r18
    12ec:	31 97       	sbiw	r30, 0x01	; 1
    12ee:	20 e3       	ldi	r18, 0x30	; 48
    12f0:	20 83       	st	Z, r18
    12f2:	31 97       	sbiw	r30, 0x01	; 1
    12f4:	21 e3       	ldi	r18, 0x31	; 49
    12f6:	20 83       	st	Z, r18
    12f8:	86 97       	sbiw	r24, 0x26	; 38
    12fa:	08 95       	ret

000012fc <xPortStartScheduler>:
    12fc:	10 92 89 00 	sts	0x0089, r1	; 0x800089 <__TEXT_REGION_LENGTH__+0x7e0089>
    1300:	8c e7       	ldi	r24, 0x7C	; 124
    1302:	80 93 88 00 	sts	0x0088, r24	; 0x800088 <__TEXT_REGION_LENGTH__+0x7e0088>
    1306:	8b e0       	ldi	r24, 0x0B	; 11
    1308:	80 93 81 00 	sts	0x0081, r24	; 0x800081 <__TEXT_REGION_LENGTH__+0x7e0081>
    130c:	ef e6       	ldi	r30, 0x6F	; 111
    130e:	f0 e0       	ldi	r31, 0x00	; 0
    1310:	80 81       	ld	r24, Z
    1312:	82 60       	ori	r24, 0x02	; 2
    1314:	80 83       	st	Z, r24
    1316:	a0 91 c6 08 	lds	r26, 0x08C6	; 0x8008c6 <pxCurrentTCB>
    131a:	b0 91 c7 08 	lds	r27, 0x08C7	; 0x8008c7 <pxCurrentTCB+0x1>
    131e:	cd 91       	ld	r28, X+
    1320:	cd bf       	out	0x3d, r28	; 61
    1322:	dd 91       	ld	r29, X+
    1324:	de bf       	out	0x3e, r29	; 62
    1326:	ff 91       	pop	r31
    1328:	ef 91       	pop	r30
    132a:	df 91       	pop	r29
    132c:	cf 91       	pop	r28
    132e:	bf 91       	pop	r27
    1330:	af 91       	pop	r26
    1332:	9f 91       	pop	r25
    1334:	8f 91       	pop	r24
    1336:	7f 91       	pop	r23
    1338:	6f 91       	pop	r22
    133a:	5f 91       	pop	r21
    133c:	4f 91       	pop	r20
    133e:	3f 91       	pop	r19
    1340:	2f 91       	pop	r18
    1342:	1f 91       	pop	r17
    1344:	0f 91       	pop	r16
    1346:	ff 90       	pop	r15
    1348:	ef 90       	pop	r14
    134a:	df 90       	pop	r13
    134c:	cf 90       	pop	r12
    134e:	bf 90       	pop	r11
    1350:	af 90       	pop	r10
    1352:	9f 90       	pop	r9
    1354:	8f 90       	pop	r8
    1356:	7f 90       	pop	r7
    1358:	6f 90       	pop	r6
    135a:	5f 90       	pop	r5
    135c:	4f 90       	pop	r4
    135e:	3f 90       	pop	r3
    1360:	2f 90       	pop	r2
    1362:	1f 90       	pop	r1
    1364:	0f 90       	pop	r0
    1366:	0f be       	out	0x3f, r0	; 63
    1368:	0f 90       	pop	r0
    136a:	08 95       	ret
    136c:	81 e0       	ldi	r24, 0x01	; 1
    136e:	08 95       	ret

00001370 <vPortYield>:
    1370:	0f 92       	push	r0
    1372:	0f b6       	in	r0, 0x3f	; 63
    1374:	f8 94       	cli
    1376:	0f 92       	push	r0
    1378:	1f 92       	push	r1
    137a:	11 24       	eor	r1, r1
    137c:	2f 92       	push	r2
    137e:	3f 92       	push	r3
    1380:	4f 92       	push	r4
    1382:	5f 92       	push	r5
    1384:	6f 92       	push	r6
    1386:	7f 92       	push	r7
    1388:	8f 92       	push	r8
    138a:	9f 92       	push	r9
    138c:	af 92       	push	r10
    138e:	bf 92       	push	r11
    1390:	cf 92       	push	r12
    1392:	df 92       	push	r13
    1394:	ef 92       	push	r14
    1396:	ff 92       	push	r15
    1398:	0f 93       	push	r16
    139a:	1f 93       	push	r17
    139c:	2f 93       	push	r18
    139e:	3f 93       	push	r19
    13a0:	4f 93       	push	r20
    13a2:	5f 93       	push	r21
    13a4:	6f 93       	push	r22
    13a6:	7f 93       	push	r23
    13a8:	8f 93       	push	r24
    13aa:	9f 93       	push	r25
    13ac:	af 93       	push	r26
    13ae:	bf 93       	push	r27
    13b0:	cf 93       	push	r28
    13b2:	df 93       	push	r29
    13b4:	ef 93       	push	r30
    13b6:	ff 93       	push	r31
    13b8:	a0 91 c6 08 	lds	r26, 0x08C6	; 0x8008c6 <pxCurrentTCB>
    13bc:	b0 91 c7 08 	lds	r27, 0x08C7	; 0x8008c7 <pxCurrentTCB+0x1>
    13c0:	0d b6       	in	r0, 0x3d	; 61
    13c2:	0d 92       	st	X+, r0
    13c4:	0e b6       	in	r0, 0x3e	; 62
    13c6:	0d 92       	st	X+, r0
    13c8:	c1 de       	rcall	.-638    	; 0x114c <vTaskSwitchContext>
    13ca:	a0 91 c6 08 	lds	r26, 0x08C6	; 0x8008c6 <pxCurrentTCB>
    13ce:	b0 91 c7 08 	lds	r27, 0x08C7	; 0x8008c7 <pxCurrentTCB+0x1>
    13d2:	cd 91       	ld	r28, X+
    13d4:	cd bf       	out	0x3d, r28	; 61
    13d6:	dd 91       	ld	r29, X+
    13d8:	de bf       	out	0x3e, r29	; 62
    13da:	ff 91       	pop	r31
    13dc:	ef 91       	pop	r30
    13de:	df 91       	pop	r29
    13e0:	cf 91       	pop	r28
    13e2:	bf 91       	pop	r27
    13e4:	af 91       	pop	r26
    13e6:	9f 91       	pop	r25
    13e8:	8f 91       	pop	r24
    13ea:	7f 91       	pop	r23
    13ec:	6f 91       	pop	r22
    13ee:	5f 91       	pop	r21
    13f0:	4f 91       	pop	r20
    13f2:	3f 91       	pop	r19
    13f4:	2f 91       	pop	r18
    13f6:	1f 91       	pop	r17
    13f8:	0f 91       	pop	r16
    13fa:	ff 90       	pop	r15
    13fc:	ef 90       	pop	r14
    13fe:	df 90       	pop	r13
    1400:	cf 90       	pop	r12
    1402:	bf 90       	pop	r11
    1404:	af 90       	pop	r10
    1406:	9f 90       	pop	r9
    1408:	8f 90       	pop	r8
    140a:	7f 90       	pop	r7
    140c:	6f 90       	pop	r6
    140e:	5f 90       	pop	r5
    1410:	4f 90       	pop	r4
    1412:	3f 90       	pop	r3
    1414:	2f 90       	pop	r2
    1416:	1f 90       	pop	r1
    1418:	0f 90       	pop	r0
    141a:	0f be       	out	0x3f, r0	; 63
    141c:	0f 90       	pop	r0
    141e:	08 95       	ret

00001420 <vPortYieldFromTick>:
    1420:	0f 92       	push	r0
    1422:	0f b6       	in	r0, 0x3f	; 63
    1424:	f8 94       	cli
    1426:	0f 92       	push	r0
    1428:	1f 92       	push	r1
    142a:	11 24       	eor	r1, r1
    142c:	2f 92       	push	r2
    142e:	3f 92       	push	r3
    1430:	4f 92       	push	r4
    1432:	5f 92       	push	r5
    1434:	6f 92       	push	r6
    1436:	7f 92       	push	r7
    1438:	8f 92       	push	r8
    143a:	9f 92       	push	r9
    143c:	af 92       	push	r10
    143e:	bf 92       	push	r11
    1440:	cf 92       	push	r12
    1442:	df 92       	push	r13
    1444:	ef 92       	push	r14
    1446:	ff 92       	push	r15
    1448:	0f 93       	push	r16
    144a:	1f 93       	push	r17
    144c:	2f 93       	push	r18
    144e:	3f 93       	push	r19
    1450:	4f 93       	push	r20
    1452:	5f 93       	push	r21
    1454:	6f 93       	push	r22
    1456:	7f 93       	push	r23
    1458:	8f 93       	push	r24
    145a:	9f 93       	push	r25
    145c:	af 93       	push	r26
    145e:	bf 93       	push	r27
    1460:	cf 93       	push	r28
    1462:	df 93       	push	r29
    1464:	ef 93       	push	r30
    1466:	ff 93       	push	r31
    1468:	a0 91 c6 08 	lds	r26, 0x08C6	; 0x8008c6 <pxCurrentTCB>
    146c:	b0 91 c7 08 	lds	r27, 0x08C7	; 0x8008c7 <pxCurrentTCB+0x1>
    1470:	0d b6       	in	r0, 0x3d	; 61
    1472:	0d 92       	st	X+, r0
    1474:	0e b6       	in	r0, 0x3e	; 62
    1476:	0d 92       	st	X+, r0
    1478:	d4 dc       	rcall	.-1624   	; 0xe22 <vTaskIncrementTick>
    147a:	68 de       	rcall	.-816    	; 0x114c <vTaskSwitchContext>
    147c:	a0 91 c6 08 	lds	r26, 0x08C6	; 0x8008c6 <pxCurrentTCB>
    1480:	b0 91 c7 08 	lds	r27, 0x08C7	; 0x8008c7 <pxCurrentTCB+0x1>
    1484:	cd 91       	ld	r28, X+
    1486:	cd bf       	out	0x3d, r28	; 61
    1488:	dd 91       	ld	r29, X+
    148a:	de bf       	out	0x3e, r29	; 62
    148c:	ff 91       	pop	r31
    148e:	ef 91       	pop	r30
    1490:	df 91       	pop	r29
    1492:	cf 91       	pop	r28
    1494:	bf 91       	pop	r27
    1496:	af 91       	pop	r26
    1498:	9f 91       	pop	r25
    149a:	8f 91       	pop	r24
    149c:	7f 91       	pop	r23
    149e:	6f 91       	pop	r22
    14a0:	5f 91       	pop	r21
    14a2:	4f 91       	pop	r20
    14a4:	3f 91       	pop	r19
    14a6:	2f 91       	pop	r18
    14a8:	1f 91       	pop	r17
    14aa:	0f 91       	pop	r16
    14ac:	ff 90       	pop	r15
    14ae:	ef 90       	pop	r14
    14b0:	df 90       	pop	r13
    14b2:	cf 90       	pop	r12
    14b4:	bf 90       	pop	r11
    14b6:	af 90       	pop	r10
    14b8:	9f 90       	pop	r9
    14ba:	8f 90       	pop	r8
    14bc:	7f 90       	pop	r7
    14be:	6f 90       	pop	r6
    14c0:	5f 90       	pop	r5
    14c2:	4f 90       	pop	r4
    14c4:	3f 90       	pop	r3
    14c6:	2f 90       	pop	r2
    14c8:	1f 90       	pop	r1
    14ca:	0f 90       	pop	r0
    14cc:	0f be       	out	0x3f, r0	; 63
    14ce:	0f 90       	pop	r0
    14d0:	08 95       	ret

000014d2 <__vector_13>:
    14d2:	a6 df       	rcall	.-180    	; 0x1420 <vPortYieldFromTick>
    14d4:	18 95       	reti

000014d6 <atoi>:
    14d6:	fc 01       	movw	r30, r24
    14d8:	88 27       	eor	r24, r24
    14da:	99 27       	eor	r25, r25
    14dc:	e8 94       	clt
    14de:	21 91       	ld	r18, Z+
    14e0:	20 32       	cpi	r18, 0x20	; 32
    14e2:	e9 f3       	breq	.-6      	; 0x14de <atoi+0x8>
    14e4:	29 30       	cpi	r18, 0x09	; 9
    14e6:	10 f0       	brcs	.+4      	; 0x14ec <atoi+0x16>
    14e8:	2e 30       	cpi	r18, 0x0E	; 14
    14ea:	c8 f3       	brcs	.-14     	; 0x14de <atoi+0x8>
    14ec:	2b 32       	cpi	r18, 0x2B	; 43
    14ee:	39 f0       	breq	.+14     	; 0x14fe <atoi+0x28>
    14f0:	2d 32       	cpi	r18, 0x2D	; 45
    14f2:	31 f4       	brne	.+12     	; 0x1500 <atoi+0x2a>
    14f4:	68 94       	set
    14f6:	03 c0       	rjmp	.+6      	; 0x14fe <atoi+0x28>
    14f8:	21 d0       	rcall	.+66     	; 0x153c <__mulhi_const_10>
    14fa:	82 0f       	add	r24, r18
    14fc:	91 1d       	adc	r25, r1
    14fe:	21 91       	ld	r18, Z+
    1500:	20 53       	subi	r18, 0x30	; 48
    1502:	2a 30       	cpi	r18, 0x0A	; 10
    1504:	c8 f3       	brcs	.-14     	; 0x14f8 <atoi+0x22>
    1506:	1e f4       	brtc	.+6      	; 0x150e <atoi+0x38>
    1508:	90 95       	com	r25
    150a:	81 95       	neg	r24
    150c:	9f 4f       	sbci	r25, 0xFF	; 255
    150e:	08 95       	ret

00001510 <memset>:
    1510:	dc 01       	movw	r26, r24
    1512:	01 c0       	rjmp	.+2      	; 0x1516 <memset+0x6>
    1514:	6d 93       	st	X+, r22
    1516:	41 50       	subi	r20, 0x01	; 1
    1518:	50 40       	sbci	r21, 0x00	; 0
    151a:	e0 f7       	brcc	.-8      	; 0x1514 <memset+0x4>
    151c:	08 95       	ret

0000151e <strncpy>:
    151e:	fb 01       	movw	r30, r22
    1520:	dc 01       	movw	r26, r24
    1522:	41 50       	subi	r20, 0x01	; 1
    1524:	50 40       	sbci	r21, 0x00	; 0
    1526:	48 f0       	brcs	.+18     	; 0x153a <strncpy+0x1c>
    1528:	01 90       	ld	r0, Z+
    152a:	0d 92       	st	X+, r0
    152c:	00 20       	and	r0, r0
    152e:	c9 f7       	brne	.-14     	; 0x1522 <strncpy+0x4>
    1530:	01 c0       	rjmp	.+2      	; 0x1534 <strncpy+0x16>
    1532:	1d 92       	st	X+, r1
    1534:	41 50       	subi	r20, 0x01	; 1
    1536:	50 40       	sbci	r21, 0x00	; 0
    1538:	e0 f7       	brcc	.-8      	; 0x1532 <strncpy+0x14>
    153a:	08 95       	ret

0000153c <__mulhi_const_10>:
    153c:	7a e0       	ldi	r23, 0x0A	; 10
    153e:	97 9f       	mul	r25, r23
    1540:	90 2d       	mov	r25, r0
    1542:	87 9f       	mul	r24, r23
    1544:	80 2d       	mov	r24, r0
    1546:	91 0d       	add	r25, r1
    1548:	11 24       	eor	r1, r1
    154a:	08 95       	ret

0000154c <sprintf>:
    154c:	0f 93       	push	r16
    154e:	1f 93       	push	r17
    1550:	cf 93       	push	r28
    1552:	df 93       	push	r29
    1554:	cd b7       	in	r28, 0x3d	; 61
    1556:	de b7       	in	r29, 0x3e	; 62
    1558:	2e 97       	sbiw	r28, 0x0e	; 14
    155a:	0f b6       	in	r0, 0x3f	; 63
    155c:	f8 94       	cli
    155e:	de bf       	out	0x3e, r29	; 62
    1560:	0f be       	out	0x3f, r0	; 63
    1562:	cd bf       	out	0x3d, r28	; 61
    1564:	0d 89       	ldd	r16, Y+21	; 0x15
    1566:	1e 89       	ldd	r17, Y+22	; 0x16
    1568:	86 e0       	ldi	r24, 0x06	; 6
    156a:	8c 83       	std	Y+4, r24	; 0x04
    156c:	1a 83       	std	Y+2, r17	; 0x02
    156e:	09 83       	std	Y+1, r16	; 0x01
    1570:	8f ef       	ldi	r24, 0xFF	; 255
    1572:	9f e7       	ldi	r25, 0x7F	; 127
    1574:	9e 83       	std	Y+6, r25	; 0x06
    1576:	8d 83       	std	Y+5, r24	; 0x05
    1578:	ae 01       	movw	r20, r28
    157a:	47 5e       	subi	r20, 0xE7	; 231
    157c:	5f 4f       	sbci	r21, 0xFF	; 255
    157e:	6f 89       	ldd	r22, Y+23	; 0x17
    1580:	78 8d       	ldd	r23, Y+24	; 0x18
    1582:	ce 01       	movw	r24, r28
    1584:	01 96       	adiw	r24, 0x01	; 1
    1586:	11 d0       	rcall	.+34     	; 0x15aa <vfprintf>
    1588:	2f 81       	ldd	r18, Y+7	; 0x07
    158a:	38 85       	ldd	r19, Y+8	; 0x08
    158c:	f8 01       	movw	r30, r16
    158e:	e2 0f       	add	r30, r18
    1590:	f3 1f       	adc	r31, r19
    1592:	10 82       	st	Z, r1
    1594:	2e 96       	adiw	r28, 0x0e	; 14
    1596:	0f b6       	in	r0, 0x3f	; 63
    1598:	f8 94       	cli
    159a:	de bf       	out	0x3e, r29	; 62
    159c:	0f be       	out	0x3f, r0	; 63
    159e:	cd bf       	out	0x3d, r28	; 61
    15a0:	df 91       	pop	r29
    15a2:	cf 91       	pop	r28
    15a4:	1f 91       	pop	r17
    15a6:	0f 91       	pop	r16
    15a8:	08 95       	ret

000015aa <vfprintf>:
    15aa:	2f 92       	push	r2
    15ac:	3f 92       	push	r3
    15ae:	4f 92       	push	r4
    15b0:	5f 92       	push	r5
    15b2:	6f 92       	push	r6
    15b4:	7f 92       	push	r7
    15b6:	8f 92       	push	r8
    15b8:	9f 92       	push	r9
    15ba:	af 92       	push	r10
    15bc:	bf 92       	push	r11
    15be:	cf 92       	push	r12
    15c0:	df 92       	push	r13
    15c2:	ef 92       	push	r14
    15c4:	ff 92       	push	r15
    15c6:	0f 93       	push	r16
    15c8:	1f 93       	push	r17
    15ca:	cf 93       	push	r28
    15cc:	df 93       	push	r29
    15ce:	cd b7       	in	r28, 0x3d	; 61
    15d0:	de b7       	in	r29, 0x3e	; 62
    15d2:	2c 97       	sbiw	r28, 0x0c	; 12
    15d4:	0f b6       	in	r0, 0x3f	; 63
    15d6:	f8 94       	cli
    15d8:	de bf       	out	0x3e, r29	; 62
    15da:	0f be       	out	0x3f, r0	; 63
    15dc:	cd bf       	out	0x3d, r28	; 61
    15de:	7c 01       	movw	r14, r24
    15e0:	6b 01       	movw	r12, r22
    15e2:	8a 01       	movw	r16, r20
    15e4:	fc 01       	movw	r30, r24
    15e6:	17 82       	std	Z+7, r1	; 0x07
    15e8:	16 82       	std	Z+6, r1	; 0x06
    15ea:	83 81       	ldd	r24, Z+3	; 0x03
    15ec:	81 ff       	sbrs	r24, 1
    15ee:	b0 c1       	rjmp	.+864    	; 0x1950 <vfprintf+0x3a6>
    15f0:	ce 01       	movw	r24, r28
    15f2:	01 96       	adiw	r24, 0x01	; 1
    15f4:	4c 01       	movw	r8, r24
    15f6:	f7 01       	movw	r30, r14
    15f8:	93 81       	ldd	r25, Z+3	; 0x03
    15fa:	f6 01       	movw	r30, r12
    15fc:	93 fd       	sbrc	r25, 3
    15fe:	85 91       	lpm	r24, Z+
    1600:	93 ff       	sbrs	r25, 3
    1602:	81 91       	ld	r24, Z+
    1604:	6f 01       	movw	r12, r30
    1606:	88 23       	and	r24, r24
    1608:	09 f4       	brne	.+2      	; 0x160c <vfprintf+0x62>
    160a:	9e c1       	rjmp	.+828    	; 0x1948 <vfprintf+0x39e>
    160c:	85 32       	cpi	r24, 0x25	; 37
    160e:	39 f4       	brne	.+14     	; 0x161e <vfprintf+0x74>
    1610:	93 fd       	sbrc	r25, 3
    1612:	85 91       	lpm	r24, Z+
    1614:	93 ff       	sbrs	r25, 3
    1616:	81 91       	ld	r24, Z+
    1618:	6f 01       	movw	r12, r30
    161a:	85 32       	cpi	r24, 0x25	; 37
    161c:	21 f4       	brne	.+8      	; 0x1626 <vfprintf+0x7c>
    161e:	b7 01       	movw	r22, r14
    1620:	90 e0       	ldi	r25, 0x00	; 0
    1622:	c7 d1       	rcall	.+910    	; 0x19b2 <fputc>
    1624:	e8 cf       	rjmp	.-48     	; 0x15f6 <vfprintf+0x4c>
    1626:	51 2c       	mov	r5, r1
    1628:	31 2c       	mov	r3, r1
    162a:	20 e0       	ldi	r18, 0x00	; 0
    162c:	20 32       	cpi	r18, 0x20	; 32
    162e:	a0 f4       	brcc	.+40     	; 0x1658 <vfprintf+0xae>
    1630:	8b 32       	cpi	r24, 0x2B	; 43
    1632:	69 f0       	breq	.+26     	; 0x164e <vfprintf+0xa4>
    1634:	30 f4       	brcc	.+12     	; 0x1642 <vfprintf+0x98>
    1636:	80 32       	cpi	r24, 0x20	; 32
    1638:	59 f0       	breq	.+22     	; 0x1650 <vfprintf+0xa6>
    163a:	83 32       	cpi	r24, 0x23	; 35
    163c:	69 f4       	brne	.+26     	; 0x1658 <vfprintf+0xae>
    163e:	20 61       	ori	r18, 0x10	; 16
    1640:	2c c0       	rjmp	.+88     	; 0x169a <vfprintf+0xf0>
    1642:	8d 32       	cpi	r24, 0x2D	; 45
    1644:	39 f0       	breq	.+14     	; 0x1654 <vfprintf+0xaa>
    1646:	80 33       	cpi	r24, 0x30	; 48
    1648:	39 f4       	brne	.+14     	; 0x1658 <vfprintf+0xae>
    164a:	21 60       	ori	r18, 0x01	; 1
    164c:	26 c0       	rjmp	.+76     	; 0x169a <vfprintf+0xf0>
    164e:	22 60       	ori	r18, 0x02	; 2
    1650:	24 60       	ori	r18, 0x04	; 4
    1652:	23 c0       	rjmp	.+70     	; 0x169a <vfprintf+0xf0>
    1654:	28 60       	ori	r18, 0x08	; 8
    1656:	21 c0       	rjmp	.+66     	; 0x169a <vfprintf+0xf0>
    1658:	27 fd       	sbrc	r18, 7
    165a:	27 c0       	rjmp	.+78     	; 0x16aa <vfprintf+0x100>
    165c:	30 ed       	ldi	r19, 0xD0	; 208
    165e:	38 0f       	add	r19, r24
    1660:	3a 30       	cpi	r19, 0x0A	; 10
    1662:	78 f4       	brcc	.+30     	; 0x1682 <vfprintf+0xd8>
    1664:	26 ff       	sbrs	r18, 6
    1666:	06 c0       	rjmp	.+12     	; 0x1674 <vfprintf+0xca>
    1668:	fa e0       	ldi	r31, 0x0A	; 10
    166a:	5f 9e       	mul	r5, r31
    166c:	30 0d       	add	r19, r0
    166e:	11 24       	eor	r1, r1
    1670:	53 2e       	mov	r5, r19
    1672:	13 c0       	rjmp	.+38     	; 0x169a <vfprintf+0xf0>
    1674:	8a e0       	ldi	r24, 0x0A	; 10
    1676:	38 9e       	mul	r3, r24
    1678:	30 0d       	add	r19, r0
    167a:	11 24       	eor	r1, r1
    167c:	33 2e       	mov	r3, r19
    167e:	20 62       	ori	r18, 0x20	; 32
    1680:	0c c0       	rjmp	.+24     	; 0x169a <vfprintf+0xf0>
    1682:	8e 32       	cpi	r24, 0x2E	; 46
    1684:	21 f4       	brne	.+8      	; 0x168e <vfprintf+0xe4>
    1686:	26 fd       	sbrc	r18, 6
    1688:	5f c1       	rjmp	.+702    	; 0x1948 <vfprintf+0x39e>
    168a:	20 64       	ori	r18, 0x40	; 64
    168c:	06 c0       	rjmp	.+12     	; 0x169a <vfprintf+0xf0>
    168e:	8c 36       	cpi	r24, 0x6C	; 108
    1690:	11 f4       	brne	.+4      	; 0x1696 <vfprintf+0xec>
    1692:	20 68       	ori	r18, 0x80	; 128
    1694:	02 c0       	rjmp	.+4      	; 0x169a <vfprintf+0xf0>
    1696:	88 36       	cpi	r24, 0x68	; 104
    1698:	41 f4       	brne	.+16     	; 0x16aa <vfprintf+0x100>
    169a:	f6 01       	movw	r30, r12
    169c:	93 fd       	sbrc	r25, 3
    169e:	85 91       	lpm	r24, Z+
    16a0:	93 ff       	sbrs	r25, 3
    16a2:	81 91       	ld	r24, Z+
    16a4:	6f 01       	movw	r12, r30
    16a6:	81 11       	cpse	r24, r1
    16a8:	c1 cf       	rjmp	.-126    	; 0x162c <vfprintf+0x82>
    16aa:	98 2f       	mov	r25, r24
    16ac:	9f 7d       	andi	r25, 0xDF	; 223
    16ae:	95 54       	subi	r25, 0x45	; 69
    16b0:	93 30       	cpi	r25, 0x03	; 3
    16b2:	28 f4       	brcc	.+10     	; 0x16be <vfprintf+0x114>
    16b4:	0c 5f       	subi	r16, 0xFC	; 252
    16b6:	1f 4f       	sbci	r17, 0xFF	; 255
    16b8:	ff e3       	ldi	r31, 0x3F	; 63
    16ba:	f9 83       	std	Y+1, r31	; 0x01
    16bc:	0d c0       	rjmp	.+26     	; 0x16d8 <vfprintf+0x12e>
    16be:	83 36       	cpi	r24, 0x63	; 99
    16c0:	31 f0       	breq	.+12     	; 0x16ce <vfprintf+0x124>
    16c2:	83 37       	cpi	r24, 0x73	; 115
    16c4:	71 f0       	breq	.+28     	; 0x16e2 <vfprintf+0x138>
    16c6:	83 35       	cpi	r24, 0x53	; 83
    16c8:	09 f0       	breq	.+2      	; 0x16cc <vfprintf+0x122>
    16ca:	57 c0       	rjmp	.+174    	; 0x177a <vfprintf+0x1d0>
    16cc:	21 c0       	rjmp	.+66     	; 0x1710 <vfprintf+0x166>
    16ce:	f8 01       	movw	r30, r16
    16d0:	80 81       	ld	r24, Z
    16d2:	89 83       	std	Y+1, r24	; 0x01
    16d4:	0e 5f       	subi	r16, 0xFE	; 254
    16d6:	1f 4f       	sbci	r17, 0xFF	; 255
    16d8:	44 24       	eor	r4, r4
    16da:	43 94       	inc	r4
    16dc:	51 2c       	mov	r5, r1
    16de:	54 01       	movw	r10, r8
    16e0:	14 c0       	rjmp	.+40     	; 0x170a <vfprintf+0x160>
    16e2:	38 01       	movw	r6, r16
    16e4:	f2 e0       	ldi	r31, 0x02	; 2
    16e6:	6f 0e       	add	r6, r31
    16e8:	71 1c       	adc	r7, r1
    16ea:	f8 01       	movw	r30, r16
    16ec:	a0 80       	ld	r10, Z
    16ee:	b1 80       	ldd	r11, Z+1	; 0x01
    16f0:	26 ff       	sbrs	r18, 6
    16f2:	03 c0       	rjmp	.+6      	; 0x16fa <vfprintf+0x150>
    16f4:	65 2d       	mov	r22, r5
    16f6:	70 e0       	ldi	r23, 0x00	; 0
    16f8:	02 c0       	rjmp	.+4      	; 0x16fe <vfprintf+0x154>
    16fa:	6f ef       	ldi	r22, 0xFF	; 255
    16fc:	7f ef       	ldi	r23, 0xFF	; 255
    16fe:	c5 01       	movw	r24, r10
    1700:	2c 87       	std	Y+12, r18	; 0x0c
    1702:	4c d1       	rcall	.+664    	; 0x199c <strnlen>
    1704:	2c 01       	movw	r4, r24
    1706:	83 01       	movw	r16, r6
    1708:	2c 85       	ldd	r18, Y+12	; 0x0c
    170a:	2f 77       	andi	r18, 0x7F	; 127
    170c:	22 2e       	mov	r2, r18
    170e:	16 c0       	rjmp	.+44     	; 0x173c <vfprintf+0x192>
    1710:	38 01       	movw	r6, r16
    1712:	f2 e0       	ldi	r31, 0x02	; 2
    1714:	6f 0e       	add	r6, r31
    1716:	71 1c       	adc	r7, r1
    1718:	f8 01       	movw	r30, r16
    171a:	a0 80       	ld	r10, Z
    171c:	b1 80       	ldd	r11, Z+1	; 0x01
    171e:	26 ff       	sbrs	r18, 6
    1720:	03 c0       	rjmp	.+6      	; 0x1728 <vfprintf+0x17e>
    1722:	65 2d       	mov	r22, r5
    1724:	70 e0       	ldi	r23, 0x00	; 0
    1726:	02 c0       	rjmp	.+4      	; 0x172c <vfprintf+0x182>
    1728:	6f ef       	ldi	r22, 0xFF	; 255
    172a:	7f ef       	ldi	r23, 0xFF	; 255
    172c:	c5 01       	movw	r24, r10
    172e:	2c 87       	std	Y+12, r18	; 0x0c
    1730:	2a d1       	rcall	.+596    	; 0x1986 <strnlen_P>
    1732:	2c 01       	movw	r4, r24
    1734:	2c 85       	ldd	r18, Y+12	; 0x0c
    1736:	20 68       	ori	r18, 0x80	; 128
    1738:	22 2e       	mov	r2, r18
    173a:	83 01       	movw	r16, r6
    173c:	23 fc       	sbrc	r2, 3
    173e:	19 c0       	rjmp	.+50     	; 0x1772 <vfprintf+0x1c8>
    1740:	83 2d       	mov	r24, r3
    1742:	90 e0       	ldi	r25, 0x00	; 0
    1744:	48 16       	cp	r4, r24
    1746:	59 06       	cpc	r5, r25
    1748:	a0 f4       	brcc	.+40     	; 0x1772 <vfprintf+0x1c8>
    174a:	b7 01       	movw	r22, r14
    174c:	80 e2       	ldi	r24, 0x20	; 32
    174e:	90 e0       	ldi	r25, 0x00	; 0
    1750:	30 d1       	rcall	.+608    	; 0x19b2 <fputc>
    1752:	3a 94       	dec	r3
    1754:	f5 cf       	rjmp	.-22     	; 0x1740 <vfprintf+0x196>
    1756:	f5 01       	movw	r30, r10
    1758:	27 fc       	sbrc	r2, 7
    175a:	85 91       	lpm	r24, Z+
    175c:	27 fe       	sbrs	r2, 7
    175e:	81 91       	ld	r24, Z+
    1760:	5f 01       	movw	r10, r30
    1762:	b7 01       	movw	r22, r14
    1764:	90 e0       	ldi	r25, 0x00	; 0
    1766:	25 d1       	rcall	.+586    	; 0x19b2 <fputc>
    1768:	31 10       	cpse	r3, r1
    176a:	3a 94       	dec	r3
    176c:	f1 e0       	ldi	r31, 0x01	; 1
    176e:	4f 1a       	sub	r4, r31
    1770:	51 08       	sbc	r5, r1
    1772:	41 14       	cp	r4, r1
    1774:	51 04       	cpc	r5, r1
    1776:	79 f7       	brne	.-34     	; 0x1756 <vfprintf+0x1ac>
    1778:	de c0       	rjmp	.+444    	; 0x1936 <vfprintf+0x38c>
    177a:	84 36       	cpi	r24, 0x64	; 100
    177c:	11 f0       	breq	.+4      	; 0x1782 <vfprintf+0x1d8>
    177e:	89 36       	cpi	r24, 0x69	; 105
    1780:	31 f5       	brne	.+76     	; 0x17ce <vfprintf+0x224>
    1782:	f8 01       	movw	r30, r16
    1784:	27 ff       	sbrs	r18, 7
    1786:	07 c0       	rjmp	.+14     	; 0x1796 <vfprintf+0x1ec>
    1788:	60 81       	ld	r22, Z
    178a:	71 81       	ldd	r23, Z+1	; 0x01
    178c:	82 81       	ldd	r24, Z+2	; 0x02
    178e:	93 81       	ldd	r25, Z+3	; 0x03
    1790:	0c 5f       	subi	r16, 0xFC	; 252
    1792:	1f 4f       	sbci	r17, 0xFF	; 255
    1794:	08 c0       	rjmp	.+16     	; 0x17a6 <vfprintf+0x1fc>
    1796:	60 81       	ld	r22, Z
    1798:	71 81       	ldd	r23, Z+1	; 0x01
    179a:	07 2e       	mov	r0, r23
    179c:	00 0c       	add	r0, r0
    179e:	88 0b       	sbc	r24, r24
    17a0:	99 0b       	sbc	r25, r25
    17a2:	0e 5f       	subi	r16, 0xFE	; 254
    17a4:	1f 4f       	sbci	r17, 0xFF	; 255
    17a6:	2f 76       	andi	r18, 0x6F	; 111
    17a8:	72 2e       	mov	r7, r18
    17aa:	97 ff       	sbrs	r25, 7
    17ac:	09 c0       	rjmp	.+18     	; 0x17c0 <vfprintf+0x216>
    17ae:	90 95       	com	r25
    17b0:	80 95       	com	r24
    17b2:	70 95       	com	r23
    17b4:	61 95       	neg	r22
    17b6:	7f 4f       	sbci	r23, 0xFF	; 255
    17b8:	8f 4f       	sbci	r24, 0xFF	; 255
    17ba:	9f 4f       	sbci	r25, 0xFF	; 255
    17bc:	20 68       	ori	r18, 0x80	; 128
    17be:	72 2e       	mov	r7, r18
    17c0:	2a e0       	ldi	r18, 0x0A	; 10
    17c2:	30 e0       	ldi	r19, 0x00	; 0
    17c4:	a4 01       	movw	r20, r8
    17c6:	2d d1       	rcall	.+602    	; 0x1a22 <__ultoa_invert>
    17c8:	a8 2e       	mov	r10, r24
    17ca:	a8 18       	sub	r10, r8
    17cc:	43 c0       	rjmp	.+134    	; 0x1854 <vfprintf+0x2aa>
    17ce:	85 37       	cpi	r24, 0x75	; 117
    17d0:	29 f4       	brne	.+10     	; 0x17dc <vfprintf+0x232>
    17d2:	2f 7e       	andi	r18, 0xEF	; 239
    17d4:	b2 2e       	mov	r11, r18
    17d6:	2a e0       	ldi	r18, 0x0A	; 10
    17d8:	30 e0       	ldi	r19, 0x00	; 0
    17da:	25 c0       	rjmp	.+74     	; 0x1826 <vfprintf+0x27c>
    17dc:	f2 2f       	mov	r31, r18
    17de:	f9 7f       	andi	r31, 0xF9	; 249
    17e0:	bf 2e       	mov	r11, r31
    17e2:	8f 36       	cpi	r24, 0x6F	; 111
    17e4:	c1 f0       	breq	.+48     	; 0x1816 <vfprintf+0x26c>
    17e6:	18 f4       	brcc	.+6      	; 0x17ee <vfprintf+0x244>
    17e8:	88 35       	cpi	r24, 0x58	; 88
    17ea:	79 f0       	breq	.+30     	; 0x180a <vfprintf+0x260>
    17ec:	ad c0       	rjmp	.+346    	; 0x1948 <vfprintf+0x39e>
    17ee:	80 37       	cpi	r24, 0x70	; 112
    17f0:	19 f0       	breq	.+6      	; 0x17f8 <vfprintf+0x24e>
    17f2:	88 37       	cpi	r24, 0x78	; 120
    17f4:	21 f0       	breq	.+8      	; 0x17fe <vfprintf+0x254>
    17f6:	a8 c0       	rjmp	.+336    	; 0x1948 <vfprintf+0x39e>
    17f8:	2f 2f       	mov	r18, r31
    17fa:	20 61       	ori	r18, 0x10	; 16
    17fc:	b2 2e       	mov	r11, r18
    17fe:	b4 fe       	sbrs	r11, 4
    1800:	0d c0       	rjmp	.+26     	; 0x181c <vfprintf+0x272>
    1802:	8b 2d       	mov	r24, r11
    1804:	84 60       	ori	r24, 0x04	; 4
    1806:	b8 2e       	mov	r11, r24
    1808:	09 c0       	rjmp	.+18     	; 0x181c <vfprintf+0x272>
    180a:	24 ff       	sbrs	r18, 4
    180c:	0a c0       	rjmp	.+20     	; 0x1822 <vfprintf+0x278>
    180e:	9f 2f       	mov	r25, r31
    1810:	96 60       	ori	r25, 0x06	; 6
    1812:	b9 2e       	mov	r11, r25
    1814:	06 c0       	rjmp	.+12     	; 0x1822 <vfprintf+0x278>
    1816:	28 e0       	ldi	r18, 0x08	; 8
    1818:	30 e0       	ldi	r19, 0x00	; 0
    181a:	05 c0       	rjmp	.+10     	; 0x1826 <vfprintf+0x27c>
    181c:	20 e1       	ldi	r18, 0x10	; 16
    181e:	30 e0       	ldi	r19, 0x00	; 0
    1820:	02 c0       	rjmp	.+4      	; 0x1826 <vfprintf+0x27c>
    1822:	20 e1       	ldi	r18, 0x10	; 16
    1824:	32 e0       	ldi	r19, 0x02	; 2
    1826:	f8 01       	movw	r30, r16
    1828:	b7 fe       	sbrs	r11, 7
    182a:	07 c0       	rjmp	.+14     	; 0x183a <vfprintf+0x290>
    182c:	60 81       	ld	r22, Z
    182e:	71 81       	ldd	r23, Z+1	; 0x01
    1830:	82 81       	ldd	r24, Z+2	; 0x02
    1832:	93 81       	ldd	r25, Z+3	; 0x03
    1834:	0c 5f       	subi	r16, 0xFC	; 252
    1836:	1f 4f       	sbci	r17, 0xFF	; 255
    1838:	06 c0       	rjmp	.+12     	; 0x1846 <vfprintf+0x29c>
    183a:	60 81       	ld	r22, Z
    183c:	71 81       	ldd	r23, Z+1	; 0x01
    183e:	80 e0       	ldi	r24, 0x00	; 0
    1840:	90 e0       	ldi	r25, 0x00	; 0
    1842:	0e 5f       	subi	r16, 0xFE	; 254
    1844:	1f 4f       	sbci	r17, 0xFF	; 255
    1846:	a4 01       	movw	r20, r8
    1848:	ec d0       	rcall	.+472    	; 0x1a22 <__ultoa_invert>
    184a:	a8 2e       	mov	r10, r24
    184c:	a8 18       	sub	r10, r8
    184e:	fb 2d       	mov	r31, r11
    1850:	ff 77       	andi	r31, 0x7F	; 127
    1852:	7f 2e       	mov	r7, r31
    1854:	76 fe       	sbrs	r7, 6
    1856:	0b c0       	rjmp	.+22     	; 0x186e <vfprintf+0x2c4>
    1858:	37 2d       	mov	r19, r7
    185a:	3e 7f       	andi	r19, 0xFE	; 254
    185c:	a5 14       	cp	r10, r5
    185e:	50 f4       	brcc	.+20     	; 0x1874 <vfprintf+0x2ca>
    1860:	74 fe       	sbrs	r7, 4
    1862:	0a c0       	rjmp	.+20     	; 0x1878 <vfprintf+0x2ce>
    1864:	72 fc       	sbrc	r7, 2
    1866:	08 c0       	rjmp	.+16     	; 0x1878 <vfprintf+0x2ce>
    1868:	37 2d       	mov	r19, r7
    186a:	3e 7e       	andi	r19, 0xEE	; 238
    186c:	05 c0       	rjmp	.+10     	; 0x1878 <vfprintf+0x2ce>
    186e:	ba 2c       	mov	r11, r10
    1870:	37 2d       	mov	r19, r7
    1872:	03 c0       	rjmp	.+6      	; 0x187a <vfprintf+0x2d0>
    1874:	ba 2c       	mov	r11, r10
    1876:	01 c0       	rjmp	.+2      	; 0x187a <vfprintf+0x2d0>
    1878:	b5 2c       	mov	r11, r5
    187a:	34 ff       	sbrs	r19, 4
    187c:	0d c0       	rjmp	.+26     	; 0x1898 <vfprintf+0x2ee>
    187e:	fe 01       	movw	r30, r28
    1880:	ea 0d       	add	r30, r10
    1882:	f1 1d       	adc	r31, r1
    1884:	80 81       	ld	r24, Z
    1886:	80 33       	cpi	r24, 0x30	; 48
    1888:	11 f4       	brne	.+4      	; 0x188e <vfprintf+0x2e4>
    188a:	39 7e       	andi	r19, 0xE9	; 233
    188c:	09 c0       	rjmp	.+18     	; 0x18a0 <vfprintf+0x2f6>
    188e:	32 ff       	sbrs	r19, 2
    1890:	06 c0       	rjmp	.+12     	; 0x189e <vfprintf+0x2f4>
    1892:	b3 94       	inc	r11
    1894:	b3 94       	inc	r11
    1896:	04 c0       	rjmp	.+8      	; 0x18a0 <vfprintf+0x2f6>
    1898:	83 2f       	mov	r24, r19
    189a:	86 78       	andi	r24, 0x86	; 134
    189c:	09 f0       	breq	.+2      	; 0x18a0 <vfprintf+0x2f6>
    189e:	b3 94       	inc	r11
    18a0:	33 fd       	sbrc	r19, 3
    18a2:	12 c0       	rjmp	.+36     	; 0x18c8 <vfprintf+0x31e>
    18a4:	30 ff       	sbrs	r19, 0
    18a6:	06 c0       	rjmp	.+12     	; 0x18b4 <vfprintf+0x30a>
    18a8:	5a 2c       	mov	r5, r10
    18aa:	b3 14       	cp	r11, r3
    18ac:	18 f4       	brcc	.+6      	; 0x18b4 <vfprintf+0x30a>
    18ae:	53 0c       	add	r5, r3
    18b0:	5b 18       	sub	r5, r11
    18b2:	b3 2c       	mov	r11, r3
    18b4:	b3 14       	cp	r11, r3
    18b6:	60 f4       	brcc	.+24     	; 0x18d0 <vfprintf+0x326>
    18b8:	b7 01       	movw	r22, r14
    18ba:	80 e2       	ldi	r24, 0x20	; 32
    18bc:	90 e0       	ldi	r25, 0x00	; 0
    18be:	3c 87       	std	Y+12, r19	; 0x0c
    18c0:	78 d0       	rcall	.+240    	; 0x19b2 <fputc>
    18c2:	b3 94       	inc	r11
    18c4:	3c 85       	ldd	r19, Y+12	; 0x0c
    18c6:	f6 cf       	rjmp	.-20     	; 0x18b4 <vfprintf+0x30a>
    18c8:	b3 14       	cp	r11, r3
    18ca:	10 f4       	brcc	.+4      	; 0x18d0 <vfprintf+0x326>
    18cc:	3b 18       	sub	r3, r11
    18ce:	01 c0       	rjmp	.+2      	; 0x18d2 <vfprintf+0x328>
    18d0:	31 2c       	mov	r3, r1
    18d2:	34 ff       	sbrs	r19, 4
    18d4:	11 c0       	rjmp	.+34     	; 0x18f8 <vfprintf+0x34e>
    18d6:	b7 01       	movw	r22, r14
    18d8:	80 e3       	ldi	r24, 0x30	; 48
    18da:	90 e0       	ldi	r25, 0x00	; 0
    18dc:	3c 87       	std	Y+12, r19	; 0x0c
    18de:	69 d0       	rcall	.+210    	; 0x19b2 <fputc>
    18e0:	3c 85       	ldd	r19, Y+12	; 0x0c
    18e2:	32 ff       	sbrs	r19, 2
    18e4:	16 c0       	rjmp	.+44     	; 0x1912 <vfprintf+0x368>
    18e6:	31 fd       	sbrc	r19, 1
    18e8:	03 c0       	rjmp	.+6      	; 0x18f0 <vfprintf+0x346>
    18ea:	88 e7       	ldi	r24, 0x78	; 120
    18ec:	90 e0       	ldi	r25, 0x00	; 0
    18ee:	02 c0       	rjmp	.+4      	; 0x18f4 <vfprintf+0x34a>
    18f0:	88 e5       	ldi	r24, 0x58	; 88
    18f2:	90 e0       	ldi	r25, 0x00	; 0
    18f4:	b7 01       	movw	r22, r14
    18f6:	0c c0       	rjmp	.+24     	; 0x1910 <vfprintf+0x366>
    18f8:	83 2f       	mov	r24, r19
    18fa:	86 78       	andi	r24, 0x86	; 134
    18fc:	51 f0       	breq	.+20     	; 0x1912 <vfprintf+0x368>
    18fe:	31 ff       	sbrs	r19, 1
    1900:	02 c0       	rjmp	.+4      	; 0x1906 <vfprintf+0x35c>
    1902:	8b e2       	ldi	r24, 0x2B	; 43
    1904:	01 c0       	rjmp	.+2      	; 0x1908 <vfprintf+0x35e>
    1906:	80 e2       	ldi	r24, 0x20	; 32
    1908:	37 fd       	sbrc	r19, 7
    190a:	8d e2       	ldi	r24, 0x2D	; 45
    190c:	b7 01       	movw	r22, r14
    190e:	90 e0       	ldi	r25, 0x00	; 0
    1910:	50 d0       	rcall	.+160    	; 0x19b2 <fputc>
    1912:	a5 14       	cp	r10, r5
    1914:	30 f4       	brcc	.+12     	; 0x1922 <vfprintf+0x378>
    1916:	b7 01       	movw	r22, r14
    1918:	80 e3       	ldi	r24, 0x30	; 48
    191a:	90 e0       	ldi	r25, 0x00	; 0
    191c:	4a d0       	rcall	.+148    	; 0x19b2 <fputc>
    191e:	5a 94       	dec	r5
    1920:	f8 cf       	rjmp	.-16     	; 0x1912 <vfprintf+0x368>
    1922:	aa 94       	dec	r10
    1924:	f4 01       	movw	r30, r8
    1926:	ea 0d       	add	r30, r10
    1928:	f1 1d       	adc	r31, r1
    192a:	80 81       	ld	r24, Z
    192c:	b7 01       	movw	r22, r14
    192e:	90 e0       	ldi	r25, 0x00	; 0
    1930:	40 d0       	rcall	.+128    	; 0x19b2 <fputc>
    1932:	a1 10       	cpse	r10, r1
    1934:	f6 cf       	rjmp	.-20     	; 0x1922 <vfprintf+0x378>
    1936:	33 20       	and	r3, r3
    1938:	09 f4       	brne	.+2      	; 0x193c <vfprintf+0x392>
    193a:	5d ce       	rjmp	.-838    	; 0x15f6 <vfprintf+0x4c>
    193c:	b7 01       	movw	r22, r14
    193e:	80 e2       	ldi	r24, 0x20	; 32
    1940:	90 e0       	ldi	r25, 0x00	; 0
    1942:	37 d0       	rcall	.+110    	; 0x19b2 <fputc>
    1944:	3a 94       	dec	r3
    1946:	f7 cf       	rjmp	.-18     	; 0x1936 <vfprintf+0x38c>
    1948:	f7 01       	movw	r30, r14
    194a:	86 81       	ldd	r24, Z+6	; 0x06
    194c:	97 81       	ldd	r25, Z+7	; 0x07
    194e:	02 c0       	rjmp	.+4      	; 0x1954 <vfprintf+0x3aa>
    1950:	8f ef       	ldi	r24, 0xFF	; 255
    1952:	9f ef       	ldi	r25, 0xFF	; 255
    1954:	2c 96       	adiw	r28, 0x0c	; 12
    1956:	0f b6       	in	r0, 0x3f	; 63
    1958:	f8 94       	cli
    195a:	de bf       	out	0x3e, r29	; 62
    195c:	0f be       	out	0x3f, r0	; 63
    195e:	cd bf       	out	0x3d, r28	; 61
    1960:	df 91       	pop	r29
    1962:	cf 91       	pop	r28
    1964:	1f 91       	pop	r17
    1966:	0f 91       	pop	r16
    1968:	ff 90       	pop	r15
    196a:	ef 90       	pop	r14
    196c:	df 90       	pop	r13
    196e:	cf 90       	pop	r12
    1970:	bf 90       	pop	r11
    1972:	af 90       	pop	r10
    1974:	9f 90       	pop	r9
    1976:	8f 90       	pop	r8
    1978:	7f 90       	pop	r7
    197a:	6f 90       	pop	r6
    197c:	5f 90       	pop	r5
    197e:	4f 90       	pop	r4
    1980:	3f 90       	pop	r3
    1982:	2f 90       	pop	r2
    1984:	08 95       	ret

00001986 <strnlen_P>:
    1986:	fc 01       	movw	r30, r24
    1988:	05 90       	lpm	r0, Z+
    198a:	61 50       	subi	r22, 0x01	; 1
    198c:	70 40       	sbci	r23, 0x00	; 0
    198e:	01 10       	cpse	r0, r1
    1990:	d8 f7       	brcc	.-10     	; 0x1988 <strnlen_P+0x2>
    1992:	80 95       	com	r24
    1994:	90 95       	com	r25
    1996:	8e 0f       	add	r24, r30
    1998:	9f 1f       	adc	r25, r31
    199a:	08 95       	ret

0000199c <strnlen>:
    199c:	fc 01       	movw	r30, r24
    199e:	61 50       	subi	r22, 0x01	; 1
    19a0:	70 40       	sbci	r23, 0x00	; 0
    19a2:	01 90       	ld	r0, Z+
    19a4:	01 10       	cpse	r0, r1
    19a6:	d8 f7       	brcc	.-10     	; 0x199e <strnlen+0x2>
    19a8:	80 95       	com	r24
    19aa:	90 95       	com	r25
    19ac:	8e 0f       	add	r24, r30
    19ae:	9f 1f       	adc	r25, r31
    19b0:	08 95       	ret

000019b2 <fputc>:
    19b2:	0f 93       	push	r16
    19b4:	1f 93       	push	r17
    19b6:	cf 93       	push	r28
    19b8:	df 93       	push	r29
    19ba:	fb 01       	movw	r30, r22
    19bc:	23 81       	ldd	r18, Z+3	; 0x03
    19be:	21 fd       	sbrc	r18, 1
    19c0:	03 c0       	rjmp	.+6      	; 0x19c8 <fputc+0x16>
    19c2:	8f ef       	ldi	r24, 0xFF	; 255
    19c4:	9f ef       	ldi	r25, 0xFF	; 255
    19c6:	28 c0       	rjmp	.+80     	; 0x1a18 <fputc+0x66>
    19c8:	22 ff       	sbrs	r18, 2
    19ca:	16 c0       	rjmp	.+44     	; 0x19f8 <fputc+0x46>
    19cc:	46 81       	ldd	r20, Z+6	; 0x06
    19ce:	57 81       	ldd	r21, Z+7	; 0x07
    19d0:	24 81       	ldd	r18, Z+4	; 0x04
    19d2:	35 81       	ldd	r19, Z+5	; 0x05
    19d4:	42 17       	cp	r20, r18
    19d6:	53 07       	cpc	r21, r19
    19d8:	44 f4       	brge	.+16     	; 0x19ea <fputc+0x38>
    19da:	a0 81       	ld	r26, Z
    19dc:	b1 81       	ldd	r27, Z+1	; 0x01
    19de:	9d 01       	movw	r18, r26
    19e0:	2f 5f       	subi	r18, 0xFF	; 255
    19e2:	3f 4f       	sbci	r19, 0xFF	; 255
    19e4:	31 83       	std	Z+1, r19	; 0x01
    19e6:	20 83       	st	Z, r18
    19e8:	8c 93       	st	X, r24
    19ea:	26 81       	ldd	r18, Z+6	; 0x06
    19ec:	37 81       	ldd	r19, Z+7	; 0x07
    19ee:	2f 5f       	subi	r18, 0xFF	; 255
    19f0:	3f 4f       	sbci	r19, 0xFF	; 255
    19f2:	37 83       	std	Z+7, r19	; 0x07
    19f4:	26 83       	std	Z+6, r18	; 0x06
    19f6:	10 c0       	rjmp	.+32     	; 0x1a18 <fputc+0x66>
    19f8:	eb 01       	movw	r28, r22
    19fa:	09 2f       	mov	r16, r25
    19fc:	18 2f       	mov	r17, r24
    19fe:	00 84       	ldd	r0, Z+8	; 0x08
    1a00:	f1 85       	ldd	r31, Z+9	; 0x09
    1a02:	e0 2d       	mov	r30, r0
    1a04:	09 95       	icall
    1a06:	89 2b       	or	r24, r25
    1a08:	e1 f6       	brne	.-72     	; 0x19c2 <fputc+0x10>
    1a0a:	8e 81       	ldd	r24, Y+6	; 0x06
    1a0c:	9f 81       	ldd	r25, Y+7	; 0x07
    1a0e:	01 96       	adiw	r24, 0x01	; 1
    1a10:	9f 83       	std	Y+7, r25	; 0x07
    1a12:	8e 83       	std	Y+6, r24	; 0x06
    1a14:	81 2f       	mov	r24, r17
    1a16:	90 2f       	mov	r25, r16
    1a18:	df 91       	pop	r29
    1a1a:	cf 91       	pop	r28
    1a1c:	1f 91       	pop	r17
    1a1e:	0f 91       	pop	r16
    1a20:	08 95       	ret

00001a22 <__ultoa_invert>:
    1a22:	fa 01       	movw	r30, r20
    1a24:	aa 27       	eor	r26, r26
    1a26:	28 30       	cpi	r18, 0x08	; 8
    1a28:	51 f1       	breq	.+84     	; 0x1a7e <__ultoa_invert+0x5c>
    1a2a:	20 31       	cpi	r18, 0x10	; 16
    1a2c:	81 f1       	breq	.+96     	; 0x1a8e <__ultoa_invert+0x6c>
    1a2e:	e8 94       	clt
    1a30:	6f 93       	push	r22
    1a32:	6e 7f       	andi	r22, 0xFE	; 254
    1a34:	6e 5f       	subi	r22, 0xFE	; 254
    1a36:	7f 4f       	sbci	r23, 0xFF	; 255
    1a38:	8f 4f       	sbci	r24, 0xFF	; 255
    1a3a:	9f 4f       	sbci	r25, 0xFF	; 255
    1a3c:	af 4f       	sbci	r26, 0xFF	; 255
    1a3e:	b1 e0       	ldi	r27, 0x01	; 1
    1a40:	3e d0       	rcall	.+124    	; 0x1abe <__ultoa_invert+0x9c>
    1a42:	b4 e0       	ldi	r27, 0x04	; 4
    1a44:	3c d0       	rcall	.+120    	; 0x1abe <__ultoa_invert+0x9c>
    1a46:	67 0f       	add	r22, r23
    1a48:	78 1f       	adc	r23, r24
    1a4a:	89 1f       	adc	r24, r25
    1a4c:	9a 1f       	adc	r25, r26
    1a4e:	a1 1d       	adc	r26, r1
    1a50:	68 0f       	add	r22, r24
    1a52:	79 1f       	adc	r23, r25
    1a54:	8a 1f       	adc	r24, r26
    1a56:	91 1d       	adc	r25, r1
    1a58:	a1 1d       	adc	r26, r1
    1a5a:	6a 0f       	add	r22, r26
    1a5c:	71 1d       	adc	r23, r1
    1a5e:	81 1d       	adc	r24, r1
    1a60:	91 1d       	adc	r25, r1
    1a62:	a1 1d       	adc	r26, r1
    1a64:	20 d0       	rcall	.+64     	; 0x1aa6 <__ultoa_invert+0x84>
    1a66:	09 f4       	brne	.+2      	; 0x1a6a <__ultoa_invert+0x48>
    1a68:	68 94       	set
    1a6a:	3f 91       	pop	r19
    1a6c:	2a e0       	ldi	r18, 0x0A	; 10
    1a6e:	26 9f       	mul	r18, r22
    1a70:	11 24       	eor	r1, r1
    1a72:	30 19       	sub	r19, r0
    1a74:	30 5d       	subi	r19, 0xD0	; 208
    1a76:	31 93       	st	Z+, r19
    1a78:	de f6       	brtc	.-74     	; 0x1a30 <__ultoa_invert+0xe>
    1a7a:	cf 01       	movw	r24, r30
    1a7c:	08 95       	ret
    1a7e:	46 2f       	mov	r20, r22
    1a80:	47 70       	andi	r20, 0x07	; 7
    1a82:	40 5d       	subi	r20, 0xD0	; 208
    1a84:	41 93       	st	Z+, r20
    1a86:	b3 e0       	ldi	r27, 0x03	; 3
    1a88:	0f d0       	rcall	.+30     	; 0x1aa8 <__ultoa_invert+0x86>
    1a8a:	c9 f7       	brne	.-14     	; 0x1a7e <__ultoa_invert+0x5c>
    1a8c:	f6 cf       	rjmp	.-20     	; 0x1a7a <__ultoa_invert+0x58>
    1a8e:	46 2f       	mov	r20, r22
    1a90:	4f 70       	andi	r20, 0x0F	; 15
    1a92:	40 5d       	subi	r20, 0xD0	; 208
    1a94:	4a 33       	cpi	r20, 0x3A	; 58
    1a96:	18 f0       	brcs	.+6      	; 0x1a9e <__ultoa_invert+0x7c>
    1a98:	49 5d       	subi	r20, 0xD9	; 217
    1a9a:	31 fd       	sbrc	r19, 1
    1a9c:	40 52       	subi	r20, 0x20	; 32
    1a9e:	41 93       	st	Z+, r20
    1aa0:	02 d0       	rcall	.+4      	; 0x1aa6 <__ultoa_invert+0x84>
    1aa2:	a9 f7       	brne	.-22     	; 0x1a8e <__ultoa_invert+0x6c>
    1aa4:	ea cf       	rjmp	.-44     	; 0x1a7a <__ultoa_invert+0x58>
    1aa6:	b4 e0       	ldi	r27, 0x04	; 4
    1aa8:	a6 95       	lsr	r26
    1aaa:	97 95       	ror	r25
    1aac:	87 95       	ror	r24
    1aae:	77 95       	ror	r23
    1ab0:	67 95       	ror	r22
    1ab2:	ba 95       	dec	r27
    1ab4:	c9 f7       	brne	.-14     	; 0x1aa8 <__ultoa_invert+0x86>
    1ab6:	00 97       	sbiw	r24, 0x00	; 0
    1ab8:	61 05       	cpc	r22, r1
    1aba:	71 05       	cpc	r23, r1
    1abc:	08 95       	ret
    1abe:	9b 01       	movw	r18, r22
    1ac0:	ac 01       	movw	r20, r24
    1ac2:	0a 2e       	mov	r0, r26
    1ac4:	06 94       	lsr	r0
    1ac6:	57 95       	ror	r21
    1ac8:	47 95       	ror	r20
    1aca:	37 95       	ror	r19
    1acc:	27 95       	ror	r18
    1ace:	ba 95       	dec	r27
    1ad0:	c9 f7       	brne	.-14     	; 0x1ac4 <__ultoa_invert+0xa2>
    1ad2:	62 0f       	add	r22, r18
    1ad4:	73 1f       	adc	r23, r19
    1ad6:	84 1f       	adc	r24, r20
    1ad8:	95 1f       	adc	r25, r21
    1ada:	a0 1d       	adc	r26, r0
    1adc:	08 95       	ret

00001ade <_exit>:
    1ade:	f8 94       	cli

00001ae0 <__stop_program>:
    1ae0:	ff cf       	rjmp	.-2      	; 0x1ae0 <__stop_program>
